;
; Definition file of libhwy.dll
; Automatic generated by gendef
; written by Kai Tietz 2008
;
LIBRARY "libhwy.dll"
EXPORTS
_ZN3hwy11HaveFloat16Ev ; Check!!! Couldn't determine function argument count. Function doesn't return. 
_ZN3hwy11HaveFloat64Ev ; Check!!! Couldn't determine function argument count. Function doesn't return. 
_ZN3hwy11VectorBytesEv ; Check!!! Couldn't determine function argument count. Function doesn't return. 
_ZN3hwy14AlignedDeleter18DeleteAlignedArrayEPvPFvS1_S1_ES1_PFvS1_jE
_ZN3hwy14DisableTargetsEx
_ZN3hwy14Unpredictable1Ev
_ZN3hwy15GetChosenTargetEv
_ZN3hwy16FreeAlignedBytesEPKvPFvPvS2_ES2_
_ZN3hwy16SupportedTargetsEv
_ZN3hwy20AllocateAlignedBytesEjPFPvS0_jES0_
_ZN3hwy26SetSupportedTargetsForTestEx
_ZN3hwy5AbortEPKciS1_z
_ZN3hwy6detail10PrintArrayERKNS0_8TypeInfoEPKcPKvjjj
_ZN3hwy6detail8ToStringERKNS0_8TypeInfoEPKvPc ; Check!!! Couldn't determine function argument count. Function doesn't return. 
_ZN3hwy6detail8TypeNameERKNS0_8TypeInfoEjPc
_ZN3hwy7MeasureEPFyPKvjEPKhPKjjPNS_6ResultERKNS_6ParamsE
_ZN3hwy8platform13HaveTimerStopEPc
_ZN3hwy8platform15TimerResolutionEv
_ZN3hwy8platform23InvariantTicksPerSecondEv
_ZN3hwy8platform3NowEv
