;
; Definition file of libpoppler-132.dll
; Automatic generated by gendef
; written by Kai Tietz 2008
;
LIBRARY "libpoppler-132.dll"
EXPORTS
_Z10utf8ToUCS4PKcPPj
_Z11localtime_rPKxP2tm
_Z11utf16ToUtf8PKtPcii
_Z11utf16ToUtf8PKtPi
_Z11utf8ToUtf16PKcPi
_Z11utf8ToUtf16PKcPtii
_Z12appendToPathP9GooStringPKc
_Z13gbase64EncodePKvj
_Z13utf8CountUCS4PKc
_Z15parseDateStringPK9GooStringPiS2_S2_S2_S2_S2_PcS2_S2_
_Z15unicodeToAscii7PKjiPPjPiPKiPS3_
_Z16TextStringToUCS4RKNSt3__112basic_stringIcNS_11char_traitsIcEENS_9allocatorIcEEEEPPj
_Z16dateStringToTimePK9GooString
_Z16setErrorCallbackPFv13ErrorCategoryxPKcE
_Z16timeToDateStringPKx
_Z18utf8ToUtf16WithBomRKNSt3__112basic_stringIcNS_11char_traitsIcEENS_9allocatorIcEEEE
_Z19utf16CountUtf8BytesPKt
_Z20unicodeNormalizeNFKCPKjiPiPS1_
_Z20unicodeNormalizeNFKCPKjiPiPS1_b
_Z21ft_new_face_from_fileP14FT_LibraryRec_PKclPP11FT_FaceRec_
_Z21pdfDocEncodingToUTF16RKNSt3__112basic_stringIcNS_11char_traitsIcEENS_9allocatorIcEEEEPi
_Z22make_GfxLCMSProfilePtrPv
_Z23utf8CountUtf16CodeUnitsPKc
_Z26getFileSpecNameForPlatformPK6Object
_Z5error13ErrorCategoryxPKcz
_Z6GfseekP6_iobufxi ; Check!!! forwards to _fseeki64 in api-ms-win-crt-stdio-l1-1-0.dll (ordinal 0)
_Z6GftellP6_iobuf ; Check!!! forwards to _ftelli64 in api-ms-win-crt-stdio-l1-1-0.dll (ordinal 0)
_Z6timegmP2tm
_Z7getLinePciP6_iobuf
_Z7mapUTF8jPci
_Z8gmtime_rPKxP2tm
_Z8openFilePKcS0_
_Z9gbasenamePKc
_ZN10ActualText3endEPK8GfxState@4
_ZN10ActualText5beginEPK8GfxStatePK9GooString@8
_ZN10ActualText7addCharEPK8GfxStateddddjiPKji@52
_ZN10ActualTextC1EP8TextPage@4
_ZN10ActualTextC2EP8TextPage@4
_ZN10ActualTextD1Ev
_ZN10ActualTextD2Ev
_ZN10AnnotCaret10initializeEP6PDFDocP4Dict@8
_ZN10AnnotCaret9setSymbolENS_16AnnotCaretSymbolE@4
_ZN10AnnotCaretC1EP6PDFDocO6ObjectPKS2_@12
_ZN10AnnotCaretC1EP6PDFDocP12PDFRectangle@8
_ZN10AnnotCaretC2EP6PDFDocO6ObjectPKS2_@12
_ZN10AnnotCaretC2EP6PDFDocP12PDFRectangle@8
_ZN10AnnotCaretD0Ev
_ZN10AnnotCaretD1Ev
_ZN10AnnotCaretD2Ev
_ZN10AnnotColor11adjustColorEi@4
_ZN10AnnotColorC1EP5Arrayi@8
_ZN10AnnotColorC1Ed@8
_ZN10AnnotColorC1Eddd@24
_ZN10AnnotColorC1Edddd@32
_ZN10AnnotColorC1Ev
_ZN10AnnotColorC2EP5Arrayi@8
_ZN10AnnotColorC2Ed@8
_ZN10AnnotColorC2Eddd@24
_ZN10AnnotColorC2Edddd@32
_ZN10AnnotColorC2Ev
_ZN10AnnotMovie10initializeEP6PDFDocP4Dict@8
_ZN10AnnotMovie4drawEP3Gfxb@8
_ZN10AnnotMovieC1EP6PDFDocO6ObjectPKS2_@12
_ZN10AnnotMovieC1EP6PDFDocP12PDFRectangleP5Movie@12
_ZN10AnnotMovieC2EP6PDFDocO6ObjectPKS2_@12
_ZN10AnnotMovieC2EP6PDFDocP12PDFRectangleP5Movie@12
_ZN10AnnotMovieD0Ev
_ZN10AnnotMovieD1Ev
_ZN10AnnotMovieD2Ev
_ZN10AnnotPopup10initializeEP6PDFDocP4Dict@8
_ZN10AnnotPopup7setOpenEb@4
_ZN10AnnotPopup9setParentEP5Annot@4
_ZN10AnnotPopupC1EP6PDFDocO6ObjectPKS2_@12
_ZN10AnnotPopupC1EP6PDFDocP12PDFRectangle@8
_ZN10AnnotPopupC2EP6PDFDocO6ObjectPKS2_@12
_ZN10AnnotPopupC2EP6PDFDocP12PDFRectangle@8
_ZN10AnnotPopupD0Ev
_ZN10AnnotPopupD1Ev
_ZN10AnnotPopupD2Ev
_ZN10AnnotStamp10initializeEP6PDFDocP4Dict@8
_ZN10AnnotStamp14setCustomImageEP21AnnotStampImageHelper@4
_ZN10AnnotStamp16clearCustomImageEv
_ZN10AnnotStamp29generateStampCustomAppearanceEv
_ZN10AnnotStamp30generateStampDefaultAppearanceEv
_ZN10AnnotStamp4drawEP3Gfxb@8
_ZN10AnnotStamp7setIconEP9GooString@4
_ZN10AnnotStampC1EP6PDFDocO6ObjectPKS2_@12
_ZN10AnnotStampC1EP6PDFDocP12PDFRectangle@8
_ZN10AnnotStampC2EP6PDFDocO6ObjectPKS2_@12
_ZN10AnnotStampC2EP6PDFDocP12PDFRectangle@8
_ZN10AnnotStampD0Ev
_ZN10AnnotStampD1Ev
_ZN10AnnotStampD2Ev
_ZN10BaseStreamC2EO6Objectx@12
_ZN10BaseStreamD0Ev DATA
_ZN10BaseStreamD1Ev
_ZN10BaseStreamD2Ev
_ZN10CachedFile4readEPvjj@12
_ZN10CachedFile4seekEli@8
_ZN10CachedFile4tellEv
_ZN10CachedFile5cacheERKNSt3__16vectorI10_ByteRangeNS0_9allocatorIS2_EEEE@4
_ZN10CachedFile5cacheEjj@8
_ZN10CachedFile9decRefCntEv
_ZN10CachedFile9incRefCntEv
_ZN10CachedFileC1EP16CachedFileLoader@4
_ZN10CachedFileC2EP16CachedFileLoader@4
_ZN10CachedFileD1Ev
_ZN10CachedFileD2Ev
_ZN10CryptoSign7Factory12createActiveEv
_ZN10CryptoSign7Factory12getAvailableEv
_ZN10CryptoSign7Factory14typeFromStringENSt3__117basic_string_viewIcNS1_11char_traitsIcEEEE
_ZN10CryptoSign7Factory16preferredBackendE DATA
_ZN10CryptoSign7Factory19setPreferredBackendENS_7Backend4TypeE
_ZN10CryptoSign7Factory6createENS_7Backend4TypeE
_ZN10CryptoSign7Factory9getActiveEv
_ZN10FileStream13makeSubStreamExbxO6Object@24
_ZN10FileStream4copyEv
_ZN10FileStream5closeEv
_ZN10FileStream5resetEv
_ZN10FileStream6setPosExi@12
_ZN10FileStream7fillBufEv
_ZN10FileStream9moveStartEx@8
_ZN10FileStreamC1EP7GooFilexbxO6Object@28
_ZN10FileStreamC2EP7GooFilexbxO6Object@28
_ZN10FileStreamD0Ev
_ZN10FileStreamD1Ev
_ZN10FileStreamD2Ev
_ZN10FoFiType1C11readCharsetEv
_ZN10FoFiType1C11readTopDictEv
_ZN10FoFiType1C12readFDSelectEv
_ZN10FoFiType1C13buildEncodingEv
_ZN10FoFiType1C13cvtGlyphWidthEbP9GooStringPK17Type1CPrivateDict@12
_ZN10FoFiType1C13eexecCvtGlyphEP14Type1CEexecBufPKciiPK11Type1CIndexPK17Type1CPrivateDict@24
_ZN10FoFiType1C14convertToType0EPKcPKiiPFvPvS1_jES4_@20
_ZN10FoFiType1C14convertToType1EPKcPS1_bPFvPvS1_jES3_@20
_ZN10FoFiType1C15readPrivateDictEiiP17Type1CPrivateDict@12
_ZN10FoFiType1C17convertToCIDType0EPKcPKiiPFvPvS1_jES4_@20
_ZN10FoFiType1C4loadEPKc
_ZN10FoFiType1C4makeEPKhi
_ZN10FoFiType1C5getOpEibPb@12
_ZN10FoFiType1C5parseEv
_ZN10FoFiType1C6readFDEiiP17Type1CPrivateDict@12
_ZN10FoFiType1C8cvtGlyphEiiP9GooStringPK11Type1CIndexPK17Type1CPrivateDictbRNSt3__13setIiNS8_4lessIiEENS8_9allocatorIiEEEE@28
_ZN10FoFiType1CC1EPKhib@12
_ZN10FoFiType1CC2EPKhib@12
_ZN10FoFiType1CD0Ev
_ZN10FoFiType1CD1Ev
_ZN10FoFiType1CD2Ev
_ZN10FormWidget11setReadOnlyEb@4
_ZN10FormWidget14setPartialNameERK9GooString@4
_ZN10FormWidget19getActivationActionEv
_ZN10FormWidget19getAdditionalActionEN5Annot25FormAdditionalActionsTypeE@8
_ZN10FormWidget19setAdditionalActionEN5Annot25FormAdditionalActionsTypeERK9GooString@8
_ZN10FormWidget21getFullyQualifiedNameEv
_ZN10FormWidget22createWidgetAnnotationEv
_ZN10FormWidget5printEi@4
_ZN10FormWidget8decodeIDEjPjS0_
_ZN10FormWidget8encodeIDEjj
_ZN10FormWidgetC2EP6PDFDocP6Objectj3RefP9FormField@24
_ZN10FormWidgetD0Ev DATA
_ZN10FormWidgetD1Ev
_ZN10FormWidgetD2Ev
_ZN10GfxCIDFont12mapCodeToGIDEP12FoFiTrueTypeijb@16
_ZN10GfxCIDFont15getCodeToGIDMapEP12FoFiTrueTypePi@8
_ZN10GfxCIDFontC1EP4XRefPKc3RefONSt3__18optionalINS5_12basic_stringIcNS5_11char_traitsIcEENS5_9allocatorIcEEEEEE11GfxFontTypeS4_P4Dict@36
_ZN10GfxCIDFontC2EP4XRefPKc3RefONSt3__18optionalINS5_12basic_stringIcNS5_11char_traitsIcEENS5_9allocatorIcEEEEEE11GfxFontTypeS4_P4Dict@36
_ZN10GfxCIDFontD0Ev
_ZN10GfxCIDFontD1Ev
_ZN10GfxCIDFontD2Ev
_ZN10GfxFontLoc7setPathEP9GooString@4
_ZN10GfxFontLocC1EOS_@4
_ZN10GfxFontLocC1Ev
_ZN10GfxFontLocC2EOS_@4
_ZN10GfxFontLocC2Ev
_ZN10GfxFontLocD1Ev
_ZN10GfxFontLocD2Ev
_ZN10GfxFontLocaSEOS_@4
_ZN10GfxShading4initEP12GfxResourcesP4DictP9OutputDevP8GfxState@16
_ZN10GfxShading5parseEP12GfxResourcesP6ObjectP9OutputDevP8GfxState
_ZN10GfxShadingC2EPKS_@4
_ZN10GfxShadingC2Ei@4
_ZN10GfxShadingD0Ev DATA
_ZN10GfxShadingD1Ev
_ZN10GfxShadingD2Ev
_ZN10JpegWriter10setQualityEi@4
_ZN10JpegWriter11setOptimizeEb@4
_ZN10JpegWriter11supportCMYKEv
_ZN10JpegWriter13writePointersEPPhi@8
_ZN10JpegWriter14setProgressiveEb@4
_ZN10JpegWriter4initEP6_iobufiidd@28
_ZN10JpegWriter5closeEv
_ZN10JpegWriter8writeRowEPPh@4
_ZN10JpegWriterC1ENS_6FormatE@4
_ZN10JpegWriterC1EibNS_6FormatE@12
_ZN10JpegWriterC2ENS_6FormatE@4
_ZN10JpegWriterC2EibNS_6FormatE@12
_ZN10JpegWriterD0Ev
_ZN10JpegWriterD1Ev
_ZN10JpegWriterD2Ev
_ZN10LinkAction11parseActionEPK6ObjectRKNSt3__18optionalINS3_12basic_stringIcNS3_11char_traitsIcEENS3_9allocatorIcEEEEEE
_ZN10LinkAction11parseActionEPK6ObjectRKNSt3__18optionalINS3_12basic_stringIcNS3_11char_traitsIcEENS3_9allocatorIcEEEEEEPNS3_3setIiNS3_4lessIiEENS8_IiEEEE
_ZN10LinkAction9parseDestEPK6Object
_ZN10LinkActionC2Ev
_ZN10LinkActionD0Ev DATA
_ZN10LinkActionD1Ev
_ZN10LinkActionD2Ev
_ZN10SplashPath19addStrokeAdjustHintEiiii@16
_ZN10SplashPath4growEi@4
_ZN10SplashPath5closeEb@4
_ZN10SplashPath6appendEPS_@4
_ZN10SplashPath6lineToEdd@16
_ZN10SplashPath6moveToEdd@16
_ZN10SplashPath6offsetEdd@16
_ZN10SplashPath7curveToEdddddd@48
_ZN10SplashPath7reserveEi@4
_ZN10SplashPath8getCurPtEPdS0_@8
_ZN10SplashPathC1EOS_@4
_ZN10SplashPathC1Ev
_ZN10SplashPathC2EOS_@4
_ZN10SplashPathC2Ev
_ZN10SplashPathD1Ev
_ZN10SplashPathD2Ev
_ZN10TiffWriter13writePointersEPPhi@8
_ZN10TiffWriter20setCompressionStringEPKc@4
_ZN10TiffWriter4initEP6_iobufiidd@28
_ZN10TiffWriter5closeEv
_ZN10TiffWriter8writeRowEPPh@4
_ZN10TiffWriterC1ENS_6FormatE@4
_ZN10TiffWriterC2ENS_6FormatE@4
_ZN10TiffWriterD0Ev
_ZN10TiffWriterD1Ev
_ZN10TiffWriterD2Ev
_ZN10UnicodeMap4swapERS_@4
_ZN10UnicodeMap5parseERKNSt3__112basic_stringIcNS0_11char_traitsIcEENS0_9allocatorIcEEEE
_ZN10UnicodeMapC1EOS_@4
_ZN10UnicodeMapC1EPKcbPFijPciE@12
_ZN10UnicodeMapC1EPKcbPK15UnicodeMapRangei@16
_ZN10UnicodeMapC1ERKNSt3__112basic_stringIcNS0_11char_traitsIcEENS0_9allocatorIcEEEE@4
_ZN10UnicodeMapC2EOS_@4
_ZN10UnicodeMapC2EPKcbPFijPciE@12
_ZN10UnicodeMapC2EPKcbPK15UnicodeMapRangei@16
_ZN10UnicodeMapC2ERKNSt3__112basic_stringIcNS0_11char_traitsIcEENS0_9allocatorIcEEEE@4
_ZN10UnicodeMapD1Ev
_ZN10UnicodeMapD2Ev
_ZN10UnicodeMapaSEOS_@4
_ZN11AnnotBorder14parseDashArrayEP6Object@4
_ZN11AnnotBorderC2Ev
_ZN11AnnotBorderD0Ev DATA
_ZN11AnnotBorderD1Ev
_ZN11AnnotBorderD2Ev
_ZN11AnnotMarkup10initializeEP6PDFDocP4Dict@8
_ZN11AnnotMarkup10setOpacityEd@8
_ZN11AnnotMarkup23removeReferencedObjectsEv ; Check!!! Couldn't determine function argument count. Function doesn't return. 
_ZN11AnnotMarkup7setDateEP9GooString@4
_ZN11AnnotMarkup8setLabelEONSt3__110unique_ptrI9GooStringNS0_14default_deleteIS2_EEEE@4
_ZN11AnnotMarkup8setPopupEONSt3__110unique_ptrI10AnnotPopupNS0_14default_deleteIS2_EEEE@4
_ZN11AnnotMarkupC1EP6PDFDocO6ObjectPKS2_@12
_ZN11AnnotMarkupC1EP6PDFDocP12PDFRectangle@8
_ZN11AnnotMarkupC2EP6PDFDocO6ObjectPKS2_@12
_ZN11AnnotMarkupC2EP6PDFDocP12PDFRectangle@8
_ZN11AnnotMarkupD0Ev
_ZN11AnnotMarkupD1Ev
_ZN11AnnotMarkupD2Ev
_ZN11AnnotScreen10initializeEP6PDFDocP4Dict@8
_ZN11AnnotScreen19getAdditionalActionEN5Annot21AdditionalActionsTypeE@8
_ZN11AnnotScreenC1EP6PDFDocO6ObjectPKS2_@12
_ZN11AnnotScreenC1EP6PDFDocP12PDFRectangle@8
_ZN11AnnotScreenC2EP6PDFDocO6ObjectPKS2_@12
_ZN11AnnotScreenC2EP6PDFDocP12PDFRectangle@8
_ZN11AnnotScreenD0Ev
_ZN11AnnotScreenD1Ev
_ZN11AnnotScreenD2Ev
_ZN11AnnotWidget10initializeEP6PDFDocP4Dict@8
_ZN11AnnotWidget19getAdditionalActionEN5Annot21AdditionalActionsTypeE@8
_ZN11AnnotWidget20invalidateAppearanceEv
_ZN11AnnotWidget22updateAppearanceStreamEv
_ZN11AnnotWidget23generateFieldAppearanceEv
_ZN11AnnotWidget23getFormAdditionalActionEN5Annot25FormAdditionalActionsTypeE@8
_ZN11AnnotWidget23setFormAdditionalActionEN5Annot25FormAdditionalActionsTypeERK9GooString@8
_ZN11AnnotWidget4drawEP3Gfxb@8
_ZN11AnnotWidgetC1EP6PDFDocO6ObjectPKS2_@12
_ZN11AnnotWidgetC1EP6PDFDocP6ObjectS3_P9FormField@16
_ZN11AnnotWidgetC2EP6PDFDocO6ObjectPKS2_@12
_ZN11AnnotWidgetC2EP6PDFDocP6ObjectS3_P9FormField@16
_ZN11AnnotWidgetD0Ev
_ZN11AnnotWidgetD1Ev
_ZN11AnnotWidgetD2Ev
_ZN11EmbedStream13makeSubStreamExbxO6Object@24
_ZN11EmbedStream4copyEv
_ZN11EmbedStream5resetEv
_ZN11EmbedStream6getPosEv
_ZN11EmbedStream6rewindEv
_ZN11EmbedStream6setPosExi@12
_ZN11EmbedStream7getCharEv
_ZN11EmbedStream7restoreEv
_ZN11EmbedStream8getCharsEiPh@8
_ZN11EmbedStream8getStartEv
_ZN11EmbedStream8lookCharEv
_ZN11EmbedStream9moveStartEx@8
_ZN11EmbedStreamC1EP6StreamO6Objectbxb@24
_ZN11EmbedStreamC2EP6StreamO6Objectbxb@24
_ZN11EmbedStreamD0Ev
_ZN11EmbedStreamD1Ev
_ZN11EmbedStreamD2Ev
_ZN11Gfx8BitFont11getCharProcEi@8
_ZN11Gfx8BitFont12getCharProcsEv
_ZN11Gfx8BitFont12getResourcesEv
_ZN11Gfx8BitFont13getCharProcNFEi@8
_ZN11Gfx8BitFont15getCodeToGIDMapEP12FoFiTrueType@4
_ZN11Gfx8BitFontC1EP4XRefPKc3RefONSt3__18optionalINS5_12basic_stringIcNS5_11char_traitsIcEENS5_9allocatorIcEEEEEE11GfxFontTypeS4_P4Dict@36
_ZN11Gfx8BitFontC2EP4XRefPKc3RefONSt3__18optionalINS5_12basic_stringIcNS5_11char_traitsIcEENS5_9allocatorIcEEEEEE11GfxFontTypeS4_P4Dict@36
_ZN11Gfx8BitFontD0Ev
_ZN11Gfx8BitFontD1Ev
_ZN11Gfx8BitFontD2Ev
_ZN11ImageStream5closeEv ; Check!!! Couldn't determine function argument count. Function doesn't return. 
_ZN11ImageStream5resetEv ; Check!!! Couldn't determine function argument count. Function doesn't return. 
_ZN11ImageStream7getLineEv
_ZN11ImageStream8getPixelEPh@4
_ZN11ImageStream8skipLineEv
_ZN11ImageStreamC1EP6Streamiii@16
_ZN11ImageStreamC2EP6Streamiii@16
_ZN11ImageStreamD1Ev
_ZN11ImageStreamD2Ev
_ZN11OutlineItem11insertChildERKNSt3__112basic_stringIcNS0_11char_traitsIcEENS0_9allocatorIcEEEEij@12
_ZN11OutlineItem11removeChildEj@4
_ZN11OutlineItem11setPageDestEi@4
_ZN11OutlineItem12readItemListEPS_PK6ObjectP4XRefP6PDFDoc
_ZN11OutlineItem13setStartsOpenEb@4
_ZN11OutlineItem4openEv
_ZN11OutlineItem7getKidsEv
_ZN11OutlineItem7hasKidsEv
_ZN11OutlineItem8setTitleERKNSt3__112basic_stringIcNS0_11char_traitsIcEENS0_9allocatorIcEEEE@4
_ZN11OutlineItemC1EPK4Dict3RefPS_P4XRefP6PDFDoc@24
_ZN11OutlineItemC2EPK4Dict3RefPS_P4XRefP6PDFDoc@24
_ZN11OutlineItemD1Ev
_ZN11OutlineItemD2Ev
_ZN11PSOutputDev10drawStringEP8GfxStatePK9GooString@4
_ZN11PSOutputDev10opiBegin13EP8GfxStateP4Dict@8
_ZN11PSOutputDev10opiBegin20EP8GfxStateP4Dict@8
_ZN11PSOutputDev10setupFontsEP4Dict@4
_ZN11PSOutputDev10setupFormsEP4Dict@8
_ZN11PSOutputDev10setupImageE3RefP6Streamb@16
_ZN11PSOutputDev10updateFontEP8GfxState@4
_ZN11PSOutputDev10updateRiseEP8GfxState@4
_ZN11PSOutputDev10writePSBufEPKci@8
_ZN11PSOutputDev10writePSFmtEPKcz
_ZN11PSOutputDev11cvtFunctionEPK8Functionb@8
_ZN11PSOutputDev11saveTextPosEP8GfxState@4
_ZN11PSOutputDev11setupImagesEP4Dict@4
_ZN11PSOutputDev11writeHeaderEiPK12PDFRectangleS2_iPKc@20
_ZN11PSOutputDev11writePSCharEc@4
_ZN11PSOutputDev11writePSNameEPKc@4
_ZN11PSOutputDev12doImageL1SepEP6ObjectP16GfxImageColorMapbbP6StreamiiiPKiS5_iib@52
_ZN11PSOutputDev12filterPSNameERKNSt3__112basic_stringIcNS0_11char_traitsIcEENS0_9allocatorIcEEEE
_ZN11PSOutputDev12opiTransformEP8GfxStateddPdS2_@28
_ZN11PSOutputDev12restoreStateEP8GfxState@4
_ZN11PSOutputDev12updateRenderEP8GfxState@4
_ZN11PSOutputDev12writeTrailerEv
_ZN11PSOutputDev13drawImageMaskEP8GfxStateP6ObjectP6Streamiibbb@32
_ZN11PSOutputDev13endTextObjectEP8GfxState@4
_ZN11PSOutputDev13filterPSLabelEP9GooStringPb@8
_ZN11PSOutputDev13updateLineCapEP8GfxState@4
_ZN11PSOutputDev13updateTextMatEP8GfxState@4
_ZN11PSOutputDev13updateTextPosEP8GfxState@4
_ZN11PSOutputDev13writeDocSetupEP7CatalogRKNSt3__16vectorIiNS2_9allocatorIiEEEEb@12
_ZN11PSOutputDev13writePSStringERKNSt3__112basic_stringIcNS0_11char_traitsIcEENS0_9allocatorIcEEEE@4
_ZN11PSOutputDev14addCustomColorEP23GfxSeparationColorSpace@4
_ZN11PSOutputDev14checkPageSliceEP4PageddibbiiiibPFbPvES2_PFbP5AnnotS2_ES2_@68
_ZN11PSOutputDev14makePSFontNameEP7GfxFontPK3Ref@8
_ZN11PSOutputDev14restoreTextPosEP8GfxState@4
_ZN11PSOutputDev14setupResourcesEP4Dict@4
_ZN11PSOutputDev14setupType3FontEP7GfxFontP9GooStringP4Dict@12
_ZN11PSOutputDev14updateFlatnessEP8GfxState@4
_ZN11PSOutputDev14updateLineDashEP8GfxState@4
_ZN11PSOutputDev14updateLineJoinEP8GfxState@4
_ZN11PSOutputDev14updateTransferEP8GfxState@4
_ZN11PSOutputDev15addProcessColorEdddd@32
_ZN11PSOutputDev15axialShadedFillEP8GfxStateP15GfxAxialShadingdd@24
_ZN11PSOutputDev15beginTextObjectEP8GfxState@4
_ZN11PSOutputDev15drawMaskedImageEP8GfxStateP6ObjectP6StreamiiP16GfxImageColorMapbS5_iibb@48
_ZN11PSOutputDev15updateCharSpaceEP8GfxState@4
_ZN11PSOutputDev15updateFillColorEP8GfxState@4
_ZN11PSOutputDev15updateLineWidthEP8GfxState@4
_ZN11PSOutputDev15updateTextShiftEP8GfxStated@12
_ZN11PSOutputDev15updateWordSpaceEP8GfxState@4
_ZN11PSOutputDev15writePSTextLineEPK9GooString@4
_ZN11PSOutputDev16clipToStrokePathEP8GfxState@4
_ZN11PSOutputDev16dumpColorSpaceL2EP8GfxStateP13GfxColorSpacebbb@20
_ZN11PSOutputDev16radialShadedFillEP8GfxStateP16GfxRadialShadingdd@24
_ZN11PSOutputDev16updateMiterLimitEP8GfxState@4
_ZN11PSOutputDev16writePageTrailerEv
_ZN11PSOutputDev16writeXpdfProcsetEv
_ZN11PSOutputDev17tilingPatternFillEP8GfxStateP3GfxP7CatalogP16GfxTilingPatternPKdiiiidd@52
_ZN11PSOutputDev17updateStrokeColorEP8GfxState@4
_ZN11PSOutputDev18functionShadedFillEP8GfxStateP18GfxFunctionShading@8
_ZN11PSOutputDev18maskToClippingPathEP6Streamiib@16
_ZN11PSOutputDev18updateHorizScalingEP8GfxState@4
_ZN11PSOutputDev19patchMeshShadedFillEP8GfxStateP19GfxPatchMeshShading@8
_ZN11PSOutputDev19tilingPatternFillL1EP8GfxStateP7CatalogP6ObjectPKdiiP4DictS7_S7_iiiidd@68
_ZN11PSOutputDev19tilingPatternFillL2EP8GfxStateP7CatalogP6ObjectPKdiiP4DictS7_S7_iiiidd@68
_ZN11PSOutputDev19updateFillOverprintEP8GfxState@4
_ZN11PSOutputDev19updateOverprintModeEP8GfxState@4
_ZN11PSOutputDev20updateFillColorSpaceEP8GfxState@4
_ZN11PSOutputDev21updateStrokeOverprintEP8GfxState@4
_ZN11PSOutputDev22setupEmbeddedType1FontEP3RefP9GooString@8
_ZN11PSOutputDev22setupExternalType1FontEPK9GooStringPS0_@8
_ZN11PSOutputDev22updateStrokeColorSpaceEP8GfxState@4
_ZN11PSOutputDev23setupEmbeddedType1CFontEP7GfxFontP3RefP9GooString@12
_ZN11PSOutputDev23updateFontMaxValidGlyphEP7GfxFonti@8
_ZN11PSOutputDev24setSoftMaskFromImageMaskEP8GfxStateP6ObjectP6StreamiibbPd@32
_ZN11PSOutputDev25setupEmbeddedCIDType0FontEP7GfxFontP3RefP9GooString@12
_ZN11PSOutputDev25setupEmbeddedTrueTypeFontEP7GfxFontP3RefP9GooString@12
_ZN11PSOutputDev25setupExternalTrueTypeFontEP7GfxFontPK9GooStringPS2_@12
_ZN11PSOutputDev26unsetSoftMaskFromImageMaskEP8GfxStatePd@8
_ZN11PSOutputDev28setupEmbeddedCIDTrueTypeFontEP7GfxFontP3RefP9GooStringb@16
_ZN11PSOutputDev28setupEmbeddedOpenTypeCFFFontEP7GfxFontP3RefP9GooString@12
_ZN11PSOutputDev28setupEmbeddedOpenTypeT1CFontEP7GfxFontP3RefP9GooString@12
_ZN11PSOutputDev28setupExternalCIDTrueTypeFontEP7GfxFontPK9GooStringPS2_b@16
_ZN11PSOutputDev4clipEP8GfxState@4
_ZN11PSOutputDev4fillEP8GfxState@4
_ZN11PSOutputDev4initEPFvPvPKcjES0_10PSFileTypePcP6PDFDocRKNSt3__16vectorIiNS9_9allocatorIiEEEE9PSOutModeiiiibiibb7PSLevel@68
_ZN11PSOutputDev6doPathEPK7GfxPath@4
_ZN11PSOutputDev6eoClipEP8GfxState@4
_ZN11PSOutputDev6eoFillEP8GfxState@4
_ZN11PSOutputDev6opiEndEP8GfxStateP4Dict@8
_ZN11PSOutputDev6strokeEP8GfxState@4
_ZN11PSOutputDev7endPageEv
_ZN11PSOutputDev7type3D0EP8GfxStatedd@20
_ZN11PSOutputDev7type3D1EP8GfxStatedddddd@52
_ZN11PSOutputDev7writePSEPKc@4
_ZN11PSOutputDev8drawFormE3Ref@8
_ZN11PSOutputDev8opiBeginEP8GfxStateP4Dict@8
_ZN11PSOutputDev8postInitEv
_ZN11PSOutputDev9doImageL1EP6ObjectP16GfxImageColorMapbbP6StreamiiiPKiS5_iib@52
_ZN11PSOutputDev9doImageL2EP8GfxStateP6ObjectP16GfxImageColorMapbbP6StreamiiiPKiS7_iib@56
_ZN11PSOutputDev9doImageL3EP8GfxStateP6ObjectP16GfxImageColorMapbbP6StreamiiiPKiS7_iib@56
_ZN11PSOutputDev9drawImageEP8GfxStateP6ObjectP6StreamiiP16GfxImageColorMapbPKib@36
_ZN11PSOutputDev9psXObjectEP6StreamS1_@8
_ZN11PSOutputDev9saveStateEP8GfxState@4
_ZN11PSOutputDev9setupFontEP7GfxFontP4Dict@8
_ZN11PSOutputDev9setupFormE3RefP6Object@12
_ZN11PSOutputDev9startPageEiP8GfxStateP4XRef@12
_ZN11PSOutputDev9updateCTMEP8GfxStatedddddd@52
_ZN11PSOutputDevC1EPFvPvPKcjES0_PcP6PDFDocRKNSt3__16vectorIiNS8_9allocatorIiEEEE9PSOutModeiibbiiii16PSForceRasterizebPFP9GooStringPS_23PSOutCustomCodeLocationiS0_ES0_7PSLevel@76
_ZN11PSOutputDevC1EPKcP6PDFDocPcRKNSt3__16vectorIiNS5_9allocatorIiEEEE9PSOutModeiibbiiii16PSForceRasterizebPFP9GooStringPS_23PSOutCustomCodeLocationiPvESI_7PSLevel@72
_ZN11PSOutputDevC1EiP6PDFDocPcRKNSt3__16vectorIiNS3_9allocatorIiEEEE9PSOutModeiibbiiii16PSForceRasterizebPFP9GooStringPS_23PSOutCustomCodeLocationiPvESG_7PSLevel@72
_ZN11PSOutputDevC2EPFvPvPKcjES0_PcP6PDFDocRKNSt3__16vectorIiNS8_9allocatorIiEEEE9PSOutModeiibbiiii16PSForceRasterizebPFP9GooStringPS_23PSOutCustomCodeLocationiS0_ES0_7PSLevel@76
_ZN11PSOutputDevC2EPKcP6PDFDocPcRKNSt3__16vectorIiNS5_9allocatorIiEEEE9PSOutModeiibbiiii16PSForceRasterizebPFP9GooStringPS_23PSOutCustomCodeLocationiPvESI_7PSLevel@72
_ZN11PSOutputDevC2EiP6PDFDocPcRKNSt3__16vectorIiNS3_9allocatorIiEEEE9PSOutModeiibbiiii16PSForceRasterizebPFP9GooStringPS_23PSOutCustomCodeLocationiPvESG_7PSLevel@72
_ZN11PSOutputDevD0Ev
_ZN11PSOutputDevD1Ev
_ZN11PSOutputDevD2Ev
_ZN12AnnotPolygon10initializeEP6PDFDocP4Dict@8
_ZN12AnnotPolygon11setVerticesEP9AnnotPath@4
_ZN12AnnotPolygon16setInteriorColorEONSt3__110unique_ptrI10AnnotColorNS0_14default_deleteIS2_EEEE@4
_ZN12AnnotPolygon16setStartEndStyleE20AnnotLineEndingStyleS0_@8
_ZN12AnnotPolygon26generatePolyLineAppearanceEP22AnnotAppearanceBuilder@4
_ZN12AnnotPolygon4drawEP3Gfxb@8
_ZN12AnnotPolygon7setTypeEN5Annot12AnnotSubtypeE@4
_ZN12AnnotPolygon9setIntentENS_18AnnotPolygonIntentE@4
_ZN12AnnotPolygonC1EP6PDFDocO6ObjectPKS2_@12
_ZN12AnnotPolygonC1EP6PDFDocP12PDFRectangleN5Annot12AnnotSubtypeE@12
_ZN12AnnotPolygonC2EP6PDFDocO6ObjectPKS2_@12
_ZN12AnnotPolygonC2EP6PDFDocP12PDFRectangleN5Annot12AnnotSubtypeE@12
_ZN12AnnotPolygonD0Ev
_ZN12AnnotPolygonD1Ev
_ZN12AnnotPolygonD2Ev
_ZN12FoFiTrueType12mapToVertGIDEj@4
_ZN12FoFiTrueType13readPostTableEv
_ZN12FoFiTrueType14doMapToVertGIDEj@4
_ZN12FoFiTrueType14scanLookupListEjj@8
_ZN12FoFiTrueType18checkGIDInCoverageEjj@8
_ZN12FoFiTrueType18scanLookupSubTableEjj@8
_ZN12FoFiTrueType4loadEPKci
_ZN12FoFiTrueType4makeEPKhii
_ZN12FoFiTrueType5parseEv
_ZN12FoFiTrueType9charToTagEPKc@4
_ZN12FoFiTrueType9setupGSUBEPKc@4
_ZN12FoFiTrueType9setupGSUBEPKcS1_@8
_ZN12FoFiTrueTypeC1EPKhibi@16
_ZN12FoFiTrueTypeC2EPKhibi@16
_ZN12FoFiTrueTypeD0Ev
_ZN12FoFiTrueTypeD1Ev
_ZN12FoFiTrueTypeD2Ev
_ZN12GfxResources10lookupFontEPKc@8
_ZN12GfxResources12lookupGStateEPKc@8
_ZN12GfxResources13lookupPatternEPKcP9OutputDevP8GfxState@12
_ZN12GfxResources13lookupShadingEPKcP9OutputDevP8GfxState@12
_ZN12GfxResources13lookupXObjectEPKc@8
_ZN12GfxResources14lookupGStateNFEPKc@8
_ZN12GfxResources15lookupXObjectNFEPKc@8
_ZN12GfxResources16lookupColorSpaceEPKc@8
_ZN12GfxResources21lookupMarkedContentNFEPKc@8
_ZN12GfxResourcesC1EP4XRefP4DictPS_@12
_ZN12GfxResourcesC2EP4XRefP4DictPS_@12
_ZN12GfxResourcesD1Ev
_ZN12GfxResourcesD2Ev
_ZN12GlobalParams10addCMapDirEPK9GooStringS2_@8
_ZN12GlobalParams10getUtf8MapEv
_ZN12GlobalParams11addFontFileERKNSt3__112basic_stringIcNS0_11char_traitsIcEENS0_9allocatorIcEEEES8_@8
_ZN12GlobalParams11getErrQuietEv
_ZN12GlobalParams11parseYesNo2EPKcPb
_ZN12GlobalParams11setErrQuietEb@4
_ZN12GlobalParams12findCMapFileEPK9GooStringS2_@8
_ZN12GlobalParams12findFontFileERKNSt3__112basic_stringIcNS0_11char_traitsIcEENS0_9allocatorIcEEEE@4
_ZN12GlobalParams13addUnicodeMapEPK9GooStringS2_@8
_ZN12GlobalParams13getUnicodeMapERKNSt3__112basic_stringIcNS0_11char_traitsIcEENS0_9allocatorIcEEEE@4
_ZN12GlobalParams14setupBaseFontsEPKc@4
_ZN12GlobalParams15addCIDToUnicodeEPK9GooStringS2_@8
_ZN12GlobalParams15getCIDToUnicodeEPK9GooString@4
_ZN12GlobalParams15getTextEncodingEv
_ZN12GlobalParams15setTextEncodingEPKc@4
_ZN12GlobalParams16getEncodingNamesEv@4
_ZN12GlobalParams16getPrintCommandsEv
_ZN12GlobalParams16scanEncodingDirsEv
_ZN12GlobalParams16setPrintCommandsEb@4
_ZN12GlobalParams17findToUnicodeFileEPK9GooString@4
_ZN12GlobalParams17getUnicodeMapFileERKNSt3__112basic_stringIcNS0_11char_traitsIcEENS0_9allocatorIcEEEE@4
_ZN12GlobalParams18findBase14FontFileEPK9GooStringPK7GfxFontPS0_@12
_ZN12GlobalParams18findSystemFontFileEPK7GfxFontP11SysFontTypePiP9GooStringPKS6_@20
_ZN12GlobalParams18getProfileCommandsEv
_ZN12GlobalParams18parseNameToUnicodeEPK9GooString@4
_ZN12GlobalParams18setProfileCommandsEb@4
_ZN12GlobalParams19getMacRomanCharCodeEPKc@4
_ZN12GlobalParams19mapNameToUnicodeAllEPKc@4
_ZN12GlobalParams20mapNameToUnicodeTextEPKc@4
_ZN12GlobalParams21getResidentUnicodeMapERKNSt3__112basic_stringIcNS0_11char_traitsIcEENS0_9allocatorIcEEEE@4
_ZN12GlobalParams26findSystemFontFileForUCharEjRK7GfxFont@12
_ZN12GlobalParams35findSystemFontFileForFamilyAndStyleERKNSt3__112basic_stringIcNS0_11char_traitsIcEENS0_9allocatorIcEEEES8_RKNS0_6vectorIS6_NS4_IS6_EEEE@16
_ZN12GlobalParams7getCMapEPK9GooStringS2_@12
_ZN12GlobalParamsC1EPKc@4
_ZN12GlobalParamsC2EPKc@4
_ZN12GlobalParamsD1Ev
_ZN12GlobalParamsD2Ev
_ZN12NetPBMWriter13writePointersEPPhi@8
_ZN12NetPBMWriter4initEP6_iobufiidd@28
_ZN12NetPBMWriter5closeEv
_ZN12NetPBMWriter8writeRowEPPh@4
_ZN12NetPBMWriterC1ENS_6FormatE@4
_ZN12NetPBMWriterC2ENS_6FormatE@4
_ZN12SplashBitmap10getRGBLineEiPh@3942
_ZN12SplashBitmap11getCMYKLineEiPh@8
_ZN12SplashBitmap11getXBGRLineEiPhNS_14ConversionModeE@3942
_ZN12SplashBitmap12writeImgFileE21SplashImageFileFormatP6_iobufddPNS_14WriteImgParamsE@28
_ZN12SplashBitmap12writeImgFileE21SplashImageFileFormatPKcddPNS_14WriteImgParamsE@28
_ZN12SplashBitmap12writeImgFileEP9ImgWriterP6_iobufdd15SplashColorMode@28
_ZN12SplashBitmap12writePNMFileEP6_iobuf@4
_ZN12SplashBitmap12writePNMFileEPc@4
_ZN12SplashBitmap13convertToXBGRENS_14ConversionModeE@4
_ZN12SplashBitmap13setJpegParamsEP9ImgWriterPNS_14WriteImgParamsE@8
_ZN12SplashBitmap17writeAlphaPGMFileEPc@4
_ZN12SplashBitmap4copyEPKS_
_ZN12SplashBitmap8getAlphaEii@8
_ZN12SplashBitmap8getPixelEiiPh@12
_ZN12SplashBitmap8takeDataEv
_ZN12SplashBitmapC1Eiii15SplashColorModebbPKNSt3__16vectorIP23GfxSeparationColorSpaceNS1_9allocatorIS4_EEEE@28
_ZN12SplashBitmapC2Eiii15SplashColorModebbPKNSt3__16vectorIP23GfxSeparationColorSpaceNS1_9allocatorIS4_EEEE@28
_ZN12SplashBitmapD1Ev
_ZN12SplashBitmapD2Ev
_ZN12TextFontInfoC1EPK8GfxState@4
_ZN12TextFontInfoC2EPK8GfxState@4
_ZN12TextFontInfoD1Ev
_ZN12TextFontInfoD2Ev
_ZN12TextWordList3getEi@4
_ZN12TextWordListC1EPK8TextPageb@8
_ZN12TextWordListC2EPK8TextPageb@8
_ZN12TextWordListD1Ev
_ZN12TextWordListD2Ev
_ZN13AnnotFreeText10initializeEP6PDFDocP4Dict@8
_ZN13AnnotFreeText11setContentsEONSt3__110unique_ptrI9GooStringNS0_14default_deleteIS2_EEEE@4
_ZN13AnnotFreeText11setQuaddingE20VariableTextQuadding@4
_ZN13AnnotFreeText14setCalloutLineEP16AnnotCalloutLine@4
_ZN13AnnotFreeText14setStyleStringEP9GooString@4
_ZN13AnnotFreeText19undefinedFontPtSizeE DATA
_ZN13AnnotFreeText20getAppearanceResDictEv@4
_ZN13AnnotFreeText20setDefaultAppearanceERK17DefaultAppearance@4
_ZN13AnnotFreeText26generateFreeTextAppearanceEv
_ZN13AnnotFreeText4drawEP3Gfxb@8
_ZN13AnnotFreeText9setIntentENS_19AnnotFreeTextIntentE@4
_ZN13AnnotFreeTextC1EP6PDFDocO6ObjectPKS2_@12
_ZN13AnnotFreeTextC1EP6PDFDocP12PDFRectangle@8
_ZN13AnnotFreeTextC2EP6PDFDocO6ObjectPKS2_@12
_ZN13AnnotFreeTextC2EP6PDFDocP12PDFRectangle@8
_ZN13AnnotFreeTextD0Ev
_ZN13AnnotFreeTextD1Ev
_ZN13AnnotFreeTextD2Ev
_ZN13AnnotGeometry10initializeEP6PDFDocP4Dict@8
_ZN13AnnotGeometry16setInteriorColorEONSt3__110unique_ptrI10AnnotColorNS0_14default_deleteIS2_EEEE@4
_ZN13AnnotGeometry4drawEP3Gfxb@8
_ZN13AnnotGeometry7setTypeEN5Annot12AnnotSubtypeE@4
_ZN13AnnotGeometryC1EP6PDFDocO6ObjectPKS2_@12
_ZN13AnnotGeometryC1EP6PDFDocP12PDFRectangleN5Annot12AnnotSubtypeE@12
_ZN13AnnotGeometryC2EP6PDFDocO6ObjectPKS2_@12
_ZN13AnnotGeometryC2EP6PDFDocP12PDFRectangleN5Annot12AnnotSubtypeE@12
_ZN13AnnotGeometryD0Ev
_ZN13AnnotGeometryD1Ev
_ZN13AnnotGeometryD2Ev
_ZN13BBoxOutputDev10updatePathEP12PDFRectanglePK7GfxPathPK8GfxState@12
_ZN13BBoxOutputDev11updateImageEP12PDFRectanglePK8GfxState@8
_ZN13BBoxOutputDev11updatePointEP12PDFRectangleddPK8GfxState@24
_ZN13BBoxOutputDev13drawImageMaskEP8GfxStateP6ObjectP6Streamiibbb@32
_ZN13BBoxOutputDev15drawMaskedImageEP8GfxStateP6ObjectP6StreamiiP16GfxImageColorMapbS5_iibb@48
_ZN13BBoxOutputDev19drawSoftMaskedImageEP8GfxStateP6ObjectP6StreamiiP16GfxImageColorMapbS5_iiS7_b@48
_ZN13BBoxOutputDev4fillEP8GfxState@4
_ZN13BBoxOutputDev6eoFillEP8GfxState@4
_ZN13BBoxOutputDev6strokeEP8GfxState@4
_ZN13BBoxOutputDev7endPageEv
_ZN13BBoxOutputDev8drawCharEP8GfxStateddddddjiPKji@68
_ZN13BBoxOutputDev9drawImageEP8GfxStateP6ObjectP6StreamiiP16GfxImageColorMapbPKib@36
_ZN13BBoxOutputDevC1Ebbb@12
_ZN13BBoxOutputDevC1Ebbbb@16
_ZN13BBoxOutputDevC1Ev
_ZN13BBoxOutputDevC2Ebbb@12
_ZN13BBoxOutputDevC2Ebbbb@16
_ZN13BBoxOutputDevC2Ev
_ZN13FileOutStream3putEc@4
_ZN13FileOutStream5closeEv
_ZN13FileOutStream6getPosEv
_ZN13FileOutStream6printfEPKcz
_ZN13FileOutStreamC1EP6_iobufx@12
_ZN13FileOutStreamC2EP6_iobufx@12
_ZN13FileOutStreamD0Ev
_ZN13FileOutStreamD1Ev
_ZN13FileOutStreamD2Ev
_ZN13GfxColorSpace13createMappingEPNSt3__16vectorIP23GfxSeparationColorSpaceNS0_9allocatorIS3_EEEEi@8
_ZN13GfxColorSpace21getColorSpaceModeNameEi
_ZN13GfxColorSpace21getNumColorSpaceModesEv
_ZN13GfxColorSpace5parseEP12GfxResourcesP6ObjectP9OutputDevP8GfxStatei
_ZN13GfxColorSpaceC2Ev
_ZN13GfxColorSpaceD0Ev DATA
_ZN13GfxColorSpaceD1Ev
_ZN13GfxColorSpaceD2Ev
_ZN13LinkResetFormC1EPK6Object@4
_ZN13LinkResetFormC2EPK6Object@4
_ZN13LinkResetFormD0Ev
_ZN13LinkResetFormD1Ev
_ZN13LinkResetFormD2Ev
_ZN13PDFDocFactory12createPDFDocERK9GooStringRKNSt3__18optionalIS0_EES7_Pv@20
_ZN13PDFDocFactory21registerPDFDocBuilderEP13PDFDocBuilder@4
_ZN13PDFDocFactoryC1EPNSt3__16vectorIP13PDFDocBuilderNS0_9allocatorIS3_EEEE@4
_ZN13PDFDocFactoryC2EPNSt3__16vectorIP13PDFDocBuilderNS0_9allocatorIS3_EEEE@4
_ZN13PDFDocFactoryD1Ev
_ZN13PDFDocFactoryD2Ev
_ZN13SignatureInfo11setLocationEPK9GooString@4
_ZN13SignatureInfo12setSubjectDNERKNSt3__112basic_stringIcNS0_11char_traitsIcEENS0_9allocatorIcEEEE ; Check!!! forwards to _ZNSt3__112basic_stringIcNS_11char_traitsIcEENS_9allocatorIcEEEaSERKS5_ in libc++.dll (ordinal 0)
_ZN13SignatureInfo13setSignerNameERKNSt3__112basic_stringIcNS0_11char_traitsIcEENS0_9allocatorIcEEEE ; Check!!! forwards to _ZNSt3__112basic_stringIcNS_11char_traitsIcEENS_9allocatorIcEEEaSERKS5_ in libc++.dll (ordinal 0)
_ZN13SignatureInfo14setSigningTimeEx@8
_ZN13SignatureInfo16setHashAlgorithmE13HashAlgorithm@4
_ZN13SignatureInfo18setCertificateInfoENSt3__110unique_ptrI19X509CertificateInfoNS0_14default_deleteIS2_EEEE@4
_ZN13SignatureInfo21setSignatureValStatusE25SignatureValidationStatus@4
_ZN13SignatureInfo23setCertificateValStatusE27CertificateValidationStatus@4
_ZN13SignatureInfo9setReasonEPK9GooString@4
_ZN13SignatureInfoD1Ev
_ZN13SignatureInfoD2Ev
_ZN13SplashFontSrc3refEv
_ZN13SplashFontSrc5unrefEv
_ZN13SplashFontSrc6setBufEONSt3__16vectorIhNS0_9allocatorIhEEEE@4
_ZN13SplashFontSrc7setFileERKNSt3__112basic_stringIcNS0_11char_traitsIcEENS0_9allocatorIcEEEE ; Check!!! forwards to _ZNSt3__112basic_stringIcNS_11char_traitsIcEENS_9allocatorIcEEEaSERKS5_ in libc++.dll (ordinal 0)
_ZN13SplashFontSrcC1Ev
_ZN13SplashFontSrcC2Ev
_ZN13SplashFontSrcD1Ev
_ZN13SplashFontSrcD2Ev
_ZN13SplashPatternC2Ev
_ZN13SplashPatternD0Ev DATA
_ZN13SplashPatternD1Ev
_ZN13SplashPatternD2Ev
_ZN13StructElement10parseChildEPK6ObjectPS0_R19RefRecursionChecker@12
_ZN13StructElement13parseChildrenEP4DictR19RefRecursionChecker@8
_ZN13StructElement15parseAttributesEP4Dictb@8
_ZN13StructElement5parseEP4Dict@4
_ZN13StructElementC1E3RefP14StructTreeRootPS_@16
_ZN13StructElementC1EP4DictP14StructTreeRootPS_R19RefRecursionChecker@16
_ZN13StructElementC1EiP14StructTreeRootPS_@12
_ZN13StructElementC2E3RefP14StructTreeRootPS_@16
_ZN13StructElementC2EP4DictP14StructTreeRootPS_R19RefRecursionChecker@16
_ZN13StructElementC2EiP14StructTreeRootPS_@12
_ZN13StructElementD1Ev
_ZN13StructElementD2Ev
_ZN13TextOutputDev10updateFontEP8GfxState@4
_ZN13TextOutputDev11beginStringEP8GfxStatePK9GooString@8
_ZN13TextOutputDev11processLinkEP9AnnotLink@4
_ZN13TextOutputDev12incCharCountEi@4
_ZN13TextOutputDev12makeWordListEv@4
_ZN13TextOutputDev12restoreStateEP8GfxState@4
_ZN13TextOutputDev13drawSelectionEP9OutputDevdiPK12PDFRectangle14SelectionStylePK8GfxColorS8_@32
_ZN13TextOutputDev13endActualTextEP8GfxState@4
_ZN13TextOutputDev15beginActualTextEP8GfxStatePK9GooString@8
_ZN13TextOutputDev16getSelectionTextEPK12PDFRectangle14SelectionStyle@8
_ZN13TextOutputDev17setMergeCombiningEb@4
_ZN13TextOutputDev18getSelectionRegionEPK12PDFRectangle14SelectionStyled@16
_ZN13TextOutputDev22minColSpacing1_defaultE DATA
_ZN13TextOutputDev4fillEP8GfxState@4
_ZN13TextOutputDev6eoFillEP8GfxState@4
_ZN13TextOutputDev6strokeEP8GfxState@4
_ZN13TextOutputDev7endPageEv
_ZN13TextOutputDev8drawCharEP8GfxStateddddddjiPKji@68
_ZN13TextOutputDev8takeTextEv
_ZN13TextOutputDev9endStringEP8GfxState@4
_ZN13TextOutputDev9startPageEiP8GfxStateP4XRef@12
_ZN13TextOutputDevC1EPFvPvPKciES0_bdbb@28
_ZN13TextOutputDevC1EPKcbdbbb@28
_ZN13TextOutputDevC2EPFvPvPKciES0_bdbb@28
_ZN13TextOutputDevC2EPKcbdbbb@28
_ZN13TextOutputDevD0Ev
_ZN13TextOutputDevD1Ev
_ZN13TextOutputDevD2Ev
_ZN14AnnotRichMedia10ActivationC1EP4Dict@4
_ZN14AnnotRichMedia10ActivationC2EP4Dict@4
_ZN14AnnotRichMedia10initializeEP6PDFDocP4Dict@8
_ZN14AnnotRichMedia12DeactivationC1EP4Dict@4
_ZN14AnnotRichMedia12DeactivationC2EP4Dict@4
_ZN14AnnotRichMedia13ConfigurationC1EP4Dict@4
_ZN14AnnotRichMedia13ConfigurationC2EP4Dict@4
_ZN14AnnotRichMedia13ConfigurationD1Ev
_ZN14AnnotRichMedia13ConfigurationD2Ev
_ZN14AnnotRichMedia5AssetC1Ev
_ZN14AnnotRichMedia5AssetC2Ev
_ZN14AnnotRichMedia5AssetD1Ev
_ZN14AnnotRichMedia5AssetD2Ev
_ZN14AnnotRichMedia6ParamsC1EP4Dict@4
_ZN14AnnotRichMedia6ParamsC2EP4Dict@4
_ZN14AnnotRichMedia6ParamsD1Ev
_ZN14AnnotRichMedia6ParamsD2Ev
_ZN14AnnotRichMedia7ContentC1EP4Dict
_ZN14AnnotRichMedia7ContentC2EP4Dict
_ZN14AnnotRichMedia7ContentD1Ev
_ZN14AnnotRichMedia7ContentD2Ev
_ZN14AnnotRichMedia8InstanceC1EP4Dict@4
_ZN14AnnotRichMedia8InstanceC2EP4Dict@4
_ZN14AnnotRichMedia8InstanceD1Ev
_ZN14AnnotRichMedia8InstanceD2Ev
_ZN14AnnotRichMedia8SettingsC1EP4Dict@4
_ZN14AnnotRichMedia8SettingsC2EP4Dict@4
_ZN14AnnotRichMedia8SettingsD1Ev
_ZN14AnnotRichMedia8SettingsD2Ev
_ZN14AnnotRichMediaC1EP6PDFDocO6ObjectPKS2_@12
_ZN14AnnotRichMediaC1EP6PDFDocP12PDFRectangle@8
_ZN14AnnotRichMediaC2EP6PDFDocO6ObjectPKS2_@12
_ZN14AnnotRichMediaC2EP6PDFDocP12PDFRectangle@8
_ZN14AnnotRichMediaD0Ev
_ZN14AnnotRichMediaD1Ev
_ZN14AnnotRichMediaD2Ev
_ZN14FormWidgetText10setContentEPK9GooString@4
_ZN14FormWidgetText15getTextFontSizeEv
_ZN14FormWidgetText15setTextFontSizeEi@4
_ZN14FormWidgetText20setAppearanceContentEPK9GooString@4
_ZN14FormWidgetText22updateWidgetAppearanceEv
_ZN14FormWidgetTextC1EP6PDFDocP6Objectj3RefP9FormField@24
_ZN14FormWidgetTextC2EP6PDFDocP6Objectj3RefP9FormField@24
_ZN14MediaRendition12outputToFileEP6_iobuf@4
_ZN14MediaRenditionC1EP6Object@4
_ZN14MediaRenditionC1ERKS_@4
_ZN14MediaRenditionC2EP6Object@4
_ZN14MediaRenditionC2ERKS_@4
_ZN14MediaRenditionD1Ev
_ZN14MediaRenditionD2Ev
_ZN14PageTransitionC1EP6Object@4
_ZN14PageTransitionC2EP6Object@4
_ZN14PageTransitionD1Ev
_ZN14PageTransitionD2Ev
_ZN15AnnotTextMarkup10initializeEP6PDFDocP4Dict@8
_ZN15AnnotTextMarkup17setQuadrilateralsEP19AnnotQuadrilaterals@4
_ZN15AnnotTextMarkup4drawEP3Gfxb@8
_ZN15AnnotTextMarkup7setTypeEN5Annot12AnnotSubtypeE@4
_ZN15AnnotTextMarkupC1EP6PDFDocO6ObjectPKS2_@12
_ZN15AnnotTextMarkupC1EP6PDFDocP12PDFRectangleN5Annot12AnnotSubtypeE@12
_ZN15AnnotTextMarkupC2EP6PDFDocO6ObjectPKS2_@12
_ZN15AnnotTextMarkupC2EP6PDFDocP12PDFRectangleN5Annot12AnnotSubtypeE@12
_ZN15AnnotTextMarkupD0Ev
_ZN15AnnotTextMarkupD1Ev
_ZN15AnnotTextMarkupD2Ev
_ZN15FILECacheLoader4initEP10CachedFile@4
_ZN15FILECacheLoader4loadERKNSt3__16vectorI10_ByteRangeNS0_9allocatorIS2_EEEEP16CachedFileWriter@8
_ZN15FILECacheLoaderD0Ev
_ZN15FILECacheLoaderD1Ev
_ZN15FILECacheLoaderD2Ev
_ZN15FontInfoScanner4scanEi@8
_ZN15FontInfoScanner9scanFontsEP4XRefP4DictPNSt3__16vectorIP8FontInfoNS4_9allocatorIS7_EEEE@12
_ZN15FontInfoScannerC1EP6PDFDoci@8
_ZN15FontInfoScannerC2EP6PDFDoci@8
_ZN15FontInfoScannerD1Ev
_ZN15FontInfoScannerD2Ev
_ZN15FormPageWidgets10addWidgetsERKNSt3__16vectorIP9FormFieldNS0_9allocatorIS3_EEEEj@8
_ZN15FormPageWidgetsC1EP6AnnotsjP4Form@12
_ZN15FormPageWidgetsC2EP6AnnotsjP4Form@12
_ZN15FormPageWidgetsD1Ev
_ZN15FormPageWidgetsD2Ev
_ZN15SplashOutputDev10takeBitmapEv
_ZN15SplashOutputDev10updateFontEP8GfxState@4
_ZN15SplashOutputDev11convertPathEP8GfxStatePK7GfxPathb@16
_ZN15SplashOutputDev11iccImageSrcEPvPhS1_
_ZN15SplashOutputDev11setSoftMaskEP8GfxStatePKdbP8FunctionP8GfxColor@20
_ZN15SplashOutputDev12doUpdateFontEP8GfxState@4
_ZN15SplashOutputDev12endType3CharEP8GfxState@4
_ZN15SplashOutputDev12iccTransformEPvP12SplashBitmap
_ZN15SplashOutputDev12imageMaskSrcEPvPh
_ZN15SplashOutputDev12restoreStateEP8GfxState@4
_ZN15SplashOutputDev13alphaImageSrcEPvPhS1_
_ZN15SplashOutputDev13clearSoftMaskEP8GfxState@4
_ZN15SplashOutputDev13drawImageMaskEP8GfxStateP6ObjectP6Streamiibbb@32
_ZN15SplashOutputDev13endTextObjectEP8GfxState@4
_ZN15SplashOutputDev13getMatteColorE15SplashColorModeP16GfxImageColorMapPK8GfxColorPh
_ZN15SplashOutputDev13setPaperColorEPh@4
_ZN15SplashOutputDev13updateLineCapEP8GfxState@4
_ZN15SplashOutputDev14beginType3CharEP8GfxStateddddjPKji@48
_ZN15SplashOutputDev14drawType3GlyphEP8GfxStateP11T3FontCacheP14T3FontCacheTagPh@16
_ZN15SplashOutputDev14getBitmapWidthEv
_ZN15SplashOutputDev14maskedImageSrcEPvPhS1_
_ZN15SplashOutputDev14updateFlatnessEP8GfxState@4
_ZN15SplashOutputDev14updateLineDashEP8GfxState@4
_ZN15SplashOutputDev14updateLineJoinEP8GfxState@4
_ZN15SplashOutputDev14updateTransferEP8GfxState@4
_ZN15SplashOutputDev14useIccImageSrcEPv@4
_ZN15SplashOutputDev15axialShadedFillEP8GfxStateP15GfxAxialShadingdd@24
_ZN15SplashOutputDev15beginTextObjectEP8GfxState@4
_ZN15SplashOutputDev15drawMaskedImageEP8GfxStateP6ObjectP6StreamiiP16GfxImageColorMapbS5_iibb@48
_ZN15SplashOutputDev15getBitmapHeightEv
_ZN15SplashOutputDev15tilingBitmapSrcEPvPhS1_
_ZN15SplashOutputDev15updateBlendModeEP8GfxState@4
_ZN15SplashOutputDev15updateFillColorEP8GfxState@4
_ZN15SplashOutputDev15updateLineWidthEP8GfxState@4
_ZN15SplashOutputDev16clipToStrokePathEP8GfxState@4
_ZN15SplashOutputDev16radialShadedFillEP8GfxStateP16GfxRadialShadingdd@24
_ZN15SplashOutputDev16setOverprintMaskEP13GfxColorSpacebiPK8GfxColorb@20
_ZN15SplashOutputDev16updateMiterLimitEP8GfxState@4
_ZN15SplashOutputDev17setupScreenParamsEdd@16
_ZN15SplashOutputDev17tilingPatternFillEP8GfxStateP3GfxP7CatalogP16GfxTilingPatternPKdiiiidd@52
_ZN15SplashOutputDev17updateFillOpacityEP8GfxState@4
_ZN15SplashOutputDev17updateStrokeColorEP8GfxState@4
_ZN15SplashOutputDev18functionShadedFillEP8GfxStateP18GfxFunctionShading@8
_ZN15SplashOutputDev18getVectorAntialiasEv
_ZN15SplashOutputDev18setFreeTypeHintingEbb@8
_ZN15SplashOutputDev18setVectorAntialiasEb@4
_ZN15SplashOutputDev18updateStrokeAdjustEP8GfxState@4
_ZN15SplashOutputDev19clearPatternOpacityEP8GfxState@4
_ZN15SplashOutputDev19drawSoftMaskedImageEP8GfxStateP6ObjectP6StreamiiP16GfxImageColorMapbS5_iiS7_b@8
_ZN15SplashOutputDev19updateFillOverprintEP8GfxState@4
_ZN15SplashOutputDev19updateOverprintModeEP8GfxState@4
_ZN15SplashOutputDev19updateStrokeOpacityEP8GfxState@4
_ZN15SplashOutputDev20endTransparencyGroupEP8GfxState@4
_ZN15SplashOutputDev20univariateShadedFillEP8GfxStateP23SplashUnivariatePatterndd@24
_ZN15SplashOutputDev20updateFillColorSpaceEP8GfxState@4
_ZN15SplashOutputDev20updatePatternOpacityEP8GfxState@4
_ZN15SplashOutputDev21updateStrokeOverprintEP8GfxState@4
_ZN15SplashOutputDev22beginTransparencyGroupEP8GfxStatePKdP13GfxColorSpacebbb@24
_ZN15SplashOutputDev22checkTransparencyGroupEP8GfxStateb@8
_ZN15SplashOutputDev22paintTransparencyGroupEP8GfxStatePKd@8
_ZN15SplashOutputDev22updateStrokeColorSpaceEP8GfxState@4
_ZN15SplashOutputDev24setSoftMaskFromImageMaskEP8GfxStateP6ObjectP6StreamiibbPd@32
_ZN15SplashOutputDev25gouraudTriangleShadedFillEP8GfxStateP25GfxGouraudTriangleShading@8
_ZN15SplashOutputDev26unsetSoftMaskFromImageMaskEP8GfxStatePd@8
_ZN15SplashOutputDev4clipEP8GfxState@4
_ZN15SplashOutputDev4fillEP8GfxState@4
_ZN15SplashOutputDev6eoClipEP8GfxState@4
_ZN15SplashOutputDev6eoFillEP8GfxState@4
_ZN15SplashOutputDev6strokeEP8GfxState@4
_ZN15SplashOutputDev7endPageEv
_ZN15SplashOutputDev7type3D0EP8GfxStatedd@20
_ZN15SplashOutputDev7type3D1EP8GfxStatedddddd@52
_ZN15SplashOutputDev8drawCharEP8GfxStateddddddjiPKji@68
_ZN15SplashOutputDev8getColorEP6GfxRGB@4
_ZN15SplashOutputDev8getColorEP7GfxCMYK@4
_ZN15SplashOutputDev8getColorEP8GfxColor@4
_ZN15SplashOutputDev8getColorEi@4
_ZN15SplashOutputDev8imageSrcEPvPhS1_
_ZN15SplashOutputDev8startDocEP6PDFDoc@4
_ZN15SplashOutputDev9drawImageEP8GfxStateP6ObjectP6StreamiiP16GfxImageColorMapbPKib@36
_ZN15SplashOutputDev9saveStateEP8GfxState@4
_ZN15SplashOutputDev9startPageEiP8GfxStateP4XRef@12
_ZN15SplashOutputDev9updateAllEP8GfxState@4
_ZN15SplashOutputDev9updateCTMEP8GfxStatedddddd@52
_ZN15SplashOutputDevC1E15SplashColorModeibPhb18SplashThinLineModeb@28
_ZN15SplashOutputDevC2E15SplashColorModeibPhb18SplashThinLineModeb@28
_ZN15SplashOutputDevD0Ev
_ZN15SplashOutputDevD1Ev
_ZN15SplashOutputDevD2Ev
_ZN16AnnotBorderArrayC1EP5Array@4
_ZN16AnnotBorderArrayC1Ev
_ZN16AnnotBorderArrayC2EP5Array@4
_ZN16AnnotBorderArrayC2Ev
_ZN16AnnotCalloutLineC1Edddd@32
_ZN16AnnotCalloutLineC2Edddd@32
_ZN16AnnotCalloutLineD0Ev
_ZN16AnnotCalloutLineD1Ev
_ZN16AnnotCalloutLineD2Ev
_ZN16CachedFileLoaderD0Ev DATA
_ZN16CachedFileLoaderD1Ev
_ZN16CachedFileLoaderD2Ev
_ZN16CachedFileStream13makeSubStreamExbxO6Object@24
_ZN16CachedFileStream4copyEv
_ZN16CachedFileStream5closeEv
_ZN16CachedFileStream5resetEv
_ZN16CachedFileStream6setPosExi@12
_ZN16CachedFileStream7fillBufEv
_ZN16CachedFileStream9moveStartEx@8
_ZN16CachedFileStreamC1EP10CachedFilexbxO6Object@28
_ZN16CachedFileStreamC2EP10CachedFilexbxO6Object@28
_ZN16CachedFileStreamD0Ev
_ZN16CachedFileStreamD1Ev
_ZN16CachedFileStreamD2Ev
_ZN16CachedFileWriter5writeEPKcj@8
_ZN16CachedFileWriterC1EP10CachedFilePNSt3__16vectorIiNS2_9allocatorIiEEEE@8
_ZN16CachedFileWriterC2EP10CachedFilePNSt3__16vectorIiNS2_9allocatorIiEEEE@8
_ZN16CachedFileWriterD1Ev
_ZN16CachedFileWriterD2Ev
_ZN16FormWidgetButton18setAppearanceStateEPKc@4
_ZN16FormWidgetButton22updateWidgetAppearanceEv
_ZN16FormWidgetButton8setStateEb@4
_ZN16FormWidgetButtonC1EP6PDFDocP6Objectj3RefP9FormField@24
_ZN16FormWidgetButtonC2EP6PDFDocP6Objectj3RefP9FormField@24
_ZN16FormWidgetButtonD0Ev
_ZN16FormWidgetButtonD1Ev
_ZN16FormWidgetButtonD2Ev
_ZN16FormWidgetChoice11deselectAllEv
_ZN16FormWidgetChoice13setEditChoiceEPK9GooString@4
_ZN16FormWidgetChoice22updateWidgetAppearanceEv
_ZN16FormWidgetChoice6selectEi@4
_ZN16FormWidgetChoice6toggleEi@4
_ZN16FormWidgetChoiceC1EP6PDFDocP6Objectj3RefP9FormField@24
_ZN16FormWidgetChoiceC2EP6PDFDocP6Objectj3RefP9FormField@24
_ZN16FormWidgetChoiceD0Ev
_ZN16FormWidgetChoiceD1Ev
_ZN16FormWidgetChoiceD2Ev
_ZN16GfxImageColorMap10getDeviceNEPKhP8GfxColor@8
_ZN16GfxImageColorMap10getRGBLineEPhPji@12
_ZN16GfxImageColorMap10getRGBLineEPhS0_i@12
_ZN16GfxImageColorMap11getCMYKLineEPhS0_i@12
_ZN16GfxImageColorMap11getGrayLineEPhS0_i@12
_ZN16GfxImageColorMap11getRGBXLineEPhS0_i@12
_ZN16GfxImageColorMap14getDeviceNLineEPhS0_i@12
_ZN16GfxImageColorMap6getRGBEPKhP6GfxRGB@8
_ZN16GfxImageColorMap7getCMYKEPKhP7GfxCMYK@8
_ZN16GfxImageColorMap7getGrayEPKhPi@8
_ZN16GfxImageColorMap8getColorEPKhP8GfxColor@8
_ZN16GfxImageColorMapC1EPKS_@4
_ZN16GfxImageColorMapC1EiP6ObjectP13GfxColorSpace@12
_ZN16GfxImageColorMapC2EPKS_@4
_ZN16GfxImageColorMapC2EiP6ObjectP13GfxColorSpace@12
_ZN16GfxImageColorMapD1Ev
_ZN16GfxImageColorMapD2Ev
_ZN16SplashFontEngine11getFontFileEP16SplashFontFileID@4
_ZN16SplashFontEngine11loadCIDFontEP16SplashFontFileIDP13SplashFontSrc@8
_ZN16SplashFontEngine13loadType1FontEP16SplashFontFileIDP13SplashFontSrcPPKc@12
_ZN16SplashFontEngine14loadType1CFontEP16SplashFontFileIDP13SplashFontSrcPPKc@12
_ZN16SplashFontEngine16loadTrueTypeFontEP16SplashFontFileIDP13SplashFontSrcPiii@20
_ZN16SplashFontEngine19loadOpenTypeCFFFontEP16SplashFontFileIDP13SplashFontSrcPii@16
_ZN16SplashFontEngine19loadOpenTypeT1CFontEP16SplashFontFileIDP13SplashFontSrcPPKc@12
_ZN16SplashFontEngine5getAAEv
_ZN16SplashFontEngine5setAAEb@4
_ZN16SplashFontEngine7getFontEP14SplashFontFilePKdS3_@12
_ZN16SplashFontEngineC1Ebbbb@16
_ZN16SplashFontEngineC2Ebbbb@16
_ZN16SplashFontEngineD1Ev
_ZN16SplashFontEngineD2Ev
_ZN16SplashFontFileIDC2Ev
_ZN16SplashFontFileIDD0Ev DATA
_ZN16SplashFontFileIDD1Ev
_ZN16SplashFontFileIDD2Ev
_ZN16SplashSolidColor8getColorEiiPh@12
_ZN16SplashSolidColorC1EPKh@4
_ZN16SplashSolidColorC2EPKh@4
_ZN16SplashSolidColorD0Ev
_ZN16SplashSolidColorD1Ev
_ZN16SplashSolidColorD2Ev
_ZN17DefaultAppearance11setFontNameEO6Object@4
_ZN17DefaultAppearance12setFontColorENSt3__110unique_ptrI10AnnotColorNS0_14default_deleteIS2_EEEE@4
_ZN17DefaultAppearance13setFontPtSizeEd@8
_ZN17DefaultAppearanceC1EO6ObjectdONSt3__110unique_ptrI10AnnotColorNS2_14default_deleteIS4_EEEE@16
_ZN17DefaultAppearanceC1EPK9GooString@4
_ZN17DefaultAppearanceC2EO6ObjectdONSt3__110unique_ptrI10AnnotColorNS2_14default_deleteIS4_EEEE@16
_ZN17DefaultAppearanceC2EPK9GooString@4
_ZN18FormFieldSignature12setSignatureERK9GooString@4
_ZN18FormFieldSignature15getCreateWidgetEv
_ZN18FormFieldSignature16setImageResourceE3Ref@8
_ZN18FormFieldSignature17validateSignatureEbbxbb@24
_ZN18FormFieldSignature18setCertificateInfoERNSt3__110unique_ptrI19X509CertificateInfoNS0_14default_deleteIS2_EEEE@4
_ZN18FormFieldSignature19getCheckedSignatureEPx@8
_ZN18FormFieldSignature19hashSignedDataBlockEPN10CryptoSign21VerificationInterfaceEx@12
_ZN18FormFieldSignature26setCustomAppearanceContentERK9GooString@4
_ZN18FormFieldSignature30setCustomAppearanceLeftContentERK9GooString@4
_ZN18FormFieldSignature31setCustomAppearanceLeftFontSizeEd@8
_ZN18FormFieldSignature5printEi@4
_ZN18FormFieldSignature9parseInfoEv
_ZN18FormFieldSignatureC1EP6PDFDocO6Object3RefP9FormFieldPNSt3__13setIiNS7_4lessIiEENS7_9allocatorIiEEEE@24
_ZN18FormFieldSignatureC2EP6PDFDocO6Object3RefP9FormFieldPNSt3__13setIiNS7_4lessIiEENS7_9allocatorIiEEEE@24
_ZN18FormFieldSignatureD0Ev
_ZN18FormFieldSignatureD1Ev
_ZN18FormFieldSignatureD2Ev
_ZN18GfxFunctionShading4initEP12GfxResourcesP4DictP9OutputDevP8GfxState@16
_ZN18GfxFunctionShading5parseEP12GfxResourcesP4DictP9OutputDevP8GfxState
_ZN18GfxFunctionShadingC1EPKS_@4
_ZN18GfxFunctionShadingC1EddddPKdONSt3__16vectorINS2_10unique_ptrI8FunctionNS2_14default_deleteIS5_EEEENS2_9allocatorIS8_EEEE@40
_ZN18GfxFunctionShadingC2EPKS_@4
_ZN18GfxFunctionShadingC2EddddPKdONSt3__16vectorINS2_10unique_ptrI8FunctionNS2_14default_deleteIS5_EEEENS2_9allocatorIS8_EEEE@40
_ZN18GfxFunctionShadingD0Ev
_ZN18GfxFunctionShadingD1Ev
_ZN18GfxFunctionShadingD2Ev
_ZN18GlobalParamsIniter13customDataDirE DATA
_ZN18GlobalParamsIniter16setCustomDataDirERKNSt3__112basic_stringIcNS0_11char_traitsIcEENS0_9allocatorIcEEEE
_ZN18GlobalParamsIniter5countE DATA
_ZN18GlobalParamsIniter5mutexE DATA
_ZN18GlobalParamsIniterC1EPFv13ErrorCategoryxPKcE@4
_ZN18GlobalParamsIniterC2EPFv13ErrorCategoryxPKcE@4
_ZN18GlobalParamsIniterD1Ev ; Check!!! forwards to _ZNSt3__15mutex6unlockEv in libc++.dll (ordinal 0)
_ZN18GlobalParamsIniterD2Ev ; Check!!! forwards to _ZNSt3__15mutex6unlockEv in libc++.dll (ordinal 0)
_ZN19AnnotQuadrilaterals18AnnotQuadrilateralC1Edddddddd@64
_ZN19AnnotQuadrilaterals18AnnotQuadrilateralC1Ev
_ZN19AnnotQuadrilaterals18AnnotQuadrilateralC2Edddddddd@64
_ZN19AnnotQuadrilaterals18AnnotQuadrilateralC2Ev
_ZN19AnnotQuadrilaterals5getX1Ei@4
_ZN19AnnotQuadrilaterals5getX2Ei@4
_ZN19AnnotQuadrilaterals5getX3Ei@4
_ZN19AnnotQuadrilaterals5getX4Ei@4
_ZN19AnnotQuadrilaterals5getY1Ei@4
_ZN19AnnotQuadrilaterals5getY2Ei@4
_ZN19AnnotQuadrilaterals5getY3Ei@4
_ZN19AnnotQuadrilaterals5getY4Ei@4
_ZN19AnnotQuadrilateralsC1EONSt3__110unique_ptrIA_NS_18AnnotQuadrilateralENS0_14default_deleteIS3_EEEEi@8
_ZN19AnnotQuadrilateralsC1EP5ArrayP12PDFRectangle@8
_ZN19AnnotQuadrilateralsC2EONSt3__110unique_ptrIA_NS_18AnnotQuadrilateralENS0_14default_deleteIS3_EEEEi@8
_ZN19AnnotQuadrilateralsC2EP5ArrayP12PDFRectangle@8
_ZN19AnnotQuadrilateralsD1Ev
_ZN19AnnotQuadrilateralsD2Ev
_ZN19BaseSeekInputStream22seekInputStreamBufSizeE DATA
_ZN19BaseSeekInputStream5closeEv
_ZN19BaseSeekInputStream5resetEv
_ZN19BaseSeekInputStream6setPosExi@12
_ZN19BaseSeekInputStream7fillBufEv
_ZN19BaseSeekInputStream8getCharsEiPh@8
_ZN19BaseSeekInputStream9moveStartEx@8
_ZN19BaseSeekInputStreamC2ExbxO6Object@24
_ZN19BaseSeekInputStreamD0Ev DATA
_ZN19BaseSeekInputStreamD1Ev
_ZN19BaseSeekInputStreamD2Ev
_ZN19FormWidgetSignature12signDocumentERKNSt3__112basic_stringIcNS0_11char_traitsIcEENS0_9allocatorIcEEEES8_S8_PK9GooStringSB_RKNS0_8optionalIS9_EESF_@28
_ZN19FormWidgetSignature13updateOffsetsEP6_iobufxxPxS2_S2_@32
_ZN19FormWidgetSignature15createSignatureER6Object3RefRK9GooStringiPS4_S6_@28
_ZN19FormWidgetSignature15updateSignatureEP6_iobufxxRK9GooString@24
_ZN19FormWidgetSignature16setSignatureTypeE17FormSignatureType@4
_ZN19FormWidgetSignature17getObjectStartEndERK9GooStringiPxS3_RKNSt3__18optionalIS0_EES8_@24
_ZN19FormWidgetSignature17validateSignatureEbbxbb@24
_ZN19FormWidgetSignature19getCheckedSignatureEPx@8
_ZN19FormWidgetSignature22updateWidgetAppearanceEv
_ZN19FormWidgetSignature26signDocumentWithAppearanceERKNSt3__112basic_stringIcNS0_11char_traitsIcEENS0_9allocatorIcEEEES8_S8_PK9GooStringSB_RKNS0_8optionalIS9_EESF_RSA_SG_ddONS0_10unique_ptrI10AnnotColorNS0_14default_deleteISI_EEEEdSM_SM_@72
_ZN19FormWidgetSignatureC1EP6PDFDocP6Objectj3RefP9FormField@24
_ZN19FormWidgetSignatureC2EP6PDFDocP6Objectj3RefP9FormField@24
_ZN19GfxPatchMeshShading4initEP12GfxResourcesP4DictP9OutputDevP8GfxState@16
_ZN19GfxPatchMeshShading5parseEP12GfxResourcesiP4DictP6StreamP9OutputDevP8GfxState
_ZN19GfxPatchMeshShadingC1EPKS_
_ZN19GfxPatchMeshShadingC1EiP8GfxPatchiONSt3__16vectorINS2_10unique_ptrI8FunctionNS2_14default_deleteIS5_EEEENS2_9allocatorIS8_EEEE@16
_ZN19GfxPatchMeshShadingC2EPKS_
_ZN19GfxPatchMeshShadingC2EiP8GfxPatchiONSt3__16vectorINS2_10unique_ptrI8FunctionNS2_14default_deleteIS5_EEEENS2_9allocatorIS8_EEEE@16
_ZN19GfxPatchMeshShadingD0Ev
_ZN19GfxPatchMeshShadingD1Ev
_ZN19GfxPatchMeshShadingD2Ev
_ZN19ImageEmbeddingUtils5embedEP4XRefRK7GooFile
_ZN19ImageEmbeddingUtils5embedEP4XRefRKNSt3__112basic_stringIcNS2_11char_traitsIcEENS2_9allocatorIcEEEE
_ZN19X509CertificateInfo10setVersionEi@4
_ZN19X509CertificateInfo11setNickNameERK9GooString@4
_ZN19X509CertificateInfo11setValidityENS_8ValidityE@16
_ZN19X509CertificateInfo13setIssuerInfoEONS_10EntityInfoE@4
_ZN19X509CertificateInfo14setKeyLocationE11KeyLocation@4
_ZN19X509CertificateInfo14setSubjectInfoEONS_10EntityInfoE@4
_ZN19X509CertificateInfo15setIsSelfSignedEb@4
_ZN19X509CertificateInfo15setSerialNumberERK9GooString@4
_ZN19X509CertificateInfo16setPublicKeyInfoEONS_13PublicKeyInfoE@4
_ZN19X509CertificateInfo17setCertificateDERERK9GooString@4
_ZN19X509CertificateInfo21setKeyUsageExtensionsEj@4
_ZN19X509CertificateInfoC1Ev
_ZN19X509CertificateInfoC2Ev
_ZN19X509CertificateInfoD1Ev
_ZN19X509CertificateInfoD2Ev
_ZN20GfxUnivariateShading10setupCacheEPK6Matrixdddd@36
_ZN20GfxUnivariateShading4initEP12GfxResourcesP4DictP9OutputDevP8GfxState@16
_ZN20GfxUnivariateShading8getColorEdP8GfxColor@12
_ZN20GfxUnivariateShadingC2EPKS_@4
_ZN20GfxUnivariateShadingC2EiddONSt3__16vectorINS0_10unique_ptrI8FunctionNS0_14default_deleteIS3_EEEENS0_9allocatorIS6_EEEEbb@32
_ZN20GfxUnivariateShadingD0Ev DATA
_ZN20GfxUnivariateShadingD1Ev
_ZN20GfxUnivariateShadingD2Ev
_ZN20OptionalContentGroup6setRefE3Ref@8
_ZN20OptionalContentGroupC1EP4Dict@4
_ZN20OptionalContentGroupC1EP9GooString@4
_ZN20OptionalContentGroupC2EP4Dict@4
_ZN20OptionalContentGroupC2EP9GooString@4
_ZN20OptionalContentGroupD1Ev
_ZN20OptionalContentGroupD2Ev
_ZN21AnnotCalloutMultiLineC1Edddddd@48
_ZN21AnnotCalloutMultiLineC2Edddddd@48
_ZN21AnnotCalloutMultiLineD0Ev
_ZN21AnnotCalloutMultiLineD1Ev
_ZN21AnnotCalloutMultiLineD2Ev
_ZN21AnnotStampImageHelper10initializeEP6PDFDocii10ColorSpaceiPci@28
_ZN21AnnotStampImageHelper27removeAnnotStampImageObjectEv
_ZN21AnnotStampImageHelperC1EP6PDFDocii10ColorSpaceiPci@28
_ZN21AnnotStampImageHelperC1EP6PDFDocii10ColorSpaceiPci3Ref@36
_ZN21AnnotStampImageHelperC2EP6PDFDocii10ColorSpaceiPci@28
_ZN21AnnotStampImageHelperC2EP6PDFDocii10ColorSpaceiPci3Ref@36
_ZN21GfxICCBasedColorSpace10getRGBLineEPhPji@12
_ZN21GfxICCBasedColorSpace10getRGBLineEPhS0_i@12
_ZN21GfxICCBasedColorSpace11getCMYKLineEPhS0_i@12
_ZN21GfxICCBasedColorSpace11getRGBXLineEPhS0_i@12
_ZN21GfxICCBasedColorSpace14getDeviceNLineEPhS0_i@12
_ZN21GfxICCBasedColorSpace15buildTransformsEP8GfxState@4
_ZN21GfxICCBasedColorSpace16getPostScriptCSAEv
_ZN21GfxICCBasedColorSpace5parseEP5ArrayP9OutputDevP8GfxStatei
_ZN21GfxICCBasedColorSpaceC1EiP13GfxColorSpacePK3Ref@12
_ZN21GfxICCBasedColorSpaceC2EiP13GfxColorSpacePK3Ref@12
_ZN21GfxICCBasedColorSpaceD0Ev
_ZN21GfxICCBasedColorSpaceD1Ev
_ZN21GfxICCBasedColorSpaceD2Ev
_ZN22AnnotAppearanceCharacsC1EP4Dict@4
_ZN22AnnotAppearanceCharacsC2EP4Dict@4
_ZN22AnnotAppearanceCharacsD1Ev
_ZN22AnnotAppearanceCharacsD2Ev
_ZN22GfxDeviceRGBColorSpace10getRGBLineEPhPji@12
_ZN22GfxDeviceRGBColorSpace10getRGBLineEPhS0_i@12
_ZN22GfxDeviceRGBColorSpace11getCMYKLineEPhS0_i@12
_ZN22GfxDeviceRGBColorSpace11getGrayLineEPhS0_i@12
_ZN22GfxDeviceRGBColorSpace11getRGBXLineEPhS0_i@12
_ZN22GfxDeviceRGBColorSpace14getDeviceNLineEPhS0_i@12
_ZN22GfxDeviceRGBColorSpaceC1Ev
_ZN22GfxDeviceRGBColorSpaceC2Ev
_ZN22GfxDeviceRGBColorSpaceD0Ev
_ZN22GfxDeviceRGBColorSpaceD1Ev
_ZN22GfxDeviceRGBColorSpaceD2Ev
_ZN22MarkedContentOutputDev16endMarkedContentEP8GfxState@4
_ZN22MarkedContentOutputDev18beginMarkedContentEPKcP4Dict@8
_ZN22MarkedContentOutputDev18contentStreamMatchEv
_ZN22MarkedContentOutputDev7endFormE3Ref@8
_ZN22MarkedContentOutputDev7endPageEv
_ZN22MarkedContentOutputDev7endSpanEv
_ZN22MarkedContentOutputDev8drawCharEP8GfxStateddddddjiPKji@68
_ZN22MarkedContentOutputDev9beginFormE3Ref@8
_ZN22MarkedContentOutputDev9startPageEiP8GfxStateP4XRef@12
_ZN22MarkedContentOutputDevC1EiRK6Object@8
_ZN22MarkedContentOutputDevC2EiRK6Object@8
_ZN22MarkedContentOutputDevD0Ev
_ZN22MarkedContentOutputDevD1Ev
_ZN22MarkedContentOutputDevD2Ev
_ZN23GfxDeviceCMYKColorSpace10getRGBLineEPhPji@12
_ZN23GfxDeviceCMYKColorSpace10getRGBLineEPhS0_i@12
_ZN23GfxDeviceCMYKColorSpace11getCMYKLineEPhS0_i@12
_ZN23GfxDeviceCMYKColorSpace11getRGBXLineEPhS0_i@12
_ZN23GfxDeviceCMYKColorSpace14getDeviceNLineEPhS0_i@12
_ZN23GfxDeviceCMYKColorSpaceC1Ev
_ZN23GfxDeviceCMYKColorSpaceC2Ev
_ZN23GfxDeviceCMYKColorSpaceD0Ev
_ZN23GfxDeviceCMYKColorSpaceD1Ev
_ZN23GfxDeviceCMYKColorSpaceD2Ev
_ZN23GfxDeviceGrayColorSpace10getRGBLineEPhPji@12
_ZN23GfxDeviceGrayColorSpace10getRGBLineEPhS0_i@12
_ZN23GfxDeviceGrayColorSpace11getCMYKLineEPhS0_i@12
_ZN23GfxDeviceGrayColorSpace11getGrayLineEPhS0_i@12
_ZN23GfxDeviceGrayColorSpace11getRGBXLineEPhS0_i@12
_ZN23GfxDeviceGrayColorSpace14getDeviceNLineEPhS0_i@12
_ZN23GfxDeviceGrayColorSpaceC1Ev
_ZN23GfxDeviceGrayColorSpaceC2Ev
_ZN23GfxDeviceGrayColorSpaceD0Ev
_ZN23GfxDeviceGrayColorSpaceD1Ev
_ZN23GfxDeviceGrayColorSpaceD2Ev
_ZN25GfxGouraudTriangleShading11getTriangleEiPdS0_P8GfxColorS0_S0_S2_S0_S0_S2_@40
_ZN25GfxGouraudTriangleShading11getTriangleEiPdS0_S0_S0_S0_S0_S0_S0_S0_@40
_ZN25GfxGouraudTriangleShading4initEP12GfxResourcesP4DictP9OutputDevP8GfxState@16
_ZN25GfxGouraudTriangleShading5parseEP12GfxResourcesiP4DictP6StreamP9OutputDevP8GfxState
_ZN25GfxGouraudTriangleShadingC1EPKS_@4
_ZN25GfxGouraudTriangleShadingC1EiP16GfxGouraudVertexiPA3_iiONSt3__16vectorINS4_10unique_ptrI8FunctionNS4_14default_deleteIS7_EEEENS4_9allocatorISA_EEEE@24
_ZN25GfxGouraudTriangleShadingC2EPKS_@4
_ZN25GfxGouraudTriangleShadingC2EiP16GfxGouraudVertexiPA3_iiONSt3__16vectorINS4_10unique_ptrI8FunctionNS4_14default_deleteIS7_EEEENS4_9allocatorISA_EEEE@24
_ZN25GfxGouraudTriangleShadingD0Ev
_ZN25GfxGouraudTriangleShadingD1Ev
_ZN25GfxGouraudTriangleShadingD2Ev
_ZN3Gfx10doShowTextEPK9GooString@4
_ZN3Gfx10doSoftMaskEP6ObjectbP13GfxColorSpacebbP8FunctionP8GfxColor@28
_ZN3Gfx10opCurveTo1EP6Objecti@8
_ZN3Gfx10opCurveTo2EP6Objecti@8
_ZN3Gfx10opEndImageEP6Objecti@8
_ZN3Gfx10opShowTextEP6Objecti@8
_ZN3Gfx10opTextMoveEP6Objecti@8
_ZN3Gfx11bottomGuardEv
_ZN3Gfx11opBeginTextEP6Objecti@8
_ZN3Gfx11opClosePathEP6Objecti@8
_ZN3Gfx11opImageDataEP6Objecti@8
_ZN3Gfx11opMarkPointEP6Objecti@8
_ZN3Gfx11opRectangleEP6Objecti@8
_ZN3Gfx12opBeginImageEP6Objecti@8
_ZN3Gfx12opFillStrokeEP6Objecti@8
_ZN3Gfx12opSetLineCapEP6Objecti@8
_ZN3Gfx12popResourcesEv
_ZN3Gfx12restoreStateEv
_ZN3Gfx13doAxialShFillEP15GfxAxialShading@4
_ZN3Gfx13doPatternFillEb@4
_ZN3Gfx13doPatternTextEv
_ZN3Gfx13opCloseStrokeEP6Objecti@8
_ZN3Gfx13opSetFillGrayEP6Objecti@8
_ZN3Gfx13opSetLineJoinEP6Objecti@8
_ZN3Gfx13opSetTextRiseEP6Objecti@8
_ZN3Gfx13opTextMoveSetEP6Objecti@8
_ZN3Gfx13popStateGuardEv
_ZN3Gfx13pushResourcesEP4Dict@4
_ZN3Gfx14doIncCharCountEPK9GooString@4
_ZN3Gfx14doRadialShFillEP16GfxRadialShading@4
_ZN3Gfx14opEOFillStrokeEP6Objecti@8
_ZN3Gfx14opMoveShowTextEP6Objecti@8
_ZN3Gfx14opSetCharWidthEP6Objecti@8
_ZN3Gfx14opSetExtGStateEP6Objecti@8
_ZN3Gfx14opSetFillColorEP6Objecti@8
_ZN3Gfx14opSetLineWidthEP6Objecti@8
_ZN3Gfx14opTextNextLineEP6Objecti@8
_ZN3Gfx14pushStateGuardEv
_ZN3Gfx14saveStateStackEv
_ZN3Gfx15contentIsHiddenEv
_ZN3Gfx15doPatternStrokeEv
_ZN3Gfx15opSetFillColorNEP6Objecti@8
_ZN3Gfx15opSetMiterLimitEP6Objecti@8
_ZN3Gfx15opSetStrokeGrayEP6Objecti@8
_ZN3Gfx15opSetTextMatrixEP6Objecti@8
_ZN3Gfx15opSetTextRenderEP6Objecti@8
_ZN3Gfx15opShowSpaceTextEP6Objecti@8
_ZN3Gfx16buildImageStreamEv
_ZN3Gfx16doFunctionShFillEP18GfxFunctionShading@4
_ZN3Gfx16opEndIgnoreUndefEP6Objecti@8
_ZN3Gfx16opSetCacheDeviceEP6Objecti@8
_ZN3Gfx16opSetCharSpacingEP6Objecti@8
_ZN3Gfx16opSetStrokeColorEP6Objecti@8
_ZN3Gfx16opSetTextLeadingEP6Objecti@8
_ZN3Gfx16opSetWordSpacingEP6Objecti@8
_ZN3Gfx16popMarkedContentEv
_ZN3Gfx17doFunctionShFill1EP18GfxFunctionShadingddddP8GfxColori@44
_ZN3Gfx17doPatchMeshShFillEP19GfxPatchMeshShading@4
_ZN3Gfx17opCloseFillStrokeEP6Objecti@8
_ZN3Gfx17opMoveSetShowTextEP6Objecti@8
_ZN3Gfx17opSetFillRGBColorEP6Objecti@8
_ZN3Gfx17opSetHorizScalingEP6Objecti@8
_ZN3Gfx17opSetStrokeColorNEP6Objecti@8
_ZN3Gfx17pushMarkedContentEv
_ZN3Gfx17restoreStateStackEP8GfxState ; Check!!! Couldn't determine function argument count. Function doesn't return. 
_ZN3Gfx18doPatternImageMaskEP6ObjectP6Streamiibb@24
_ZN3Gfx18initDisplayProfileEv
_ZN3Gfx18opBeginIgnoreUndefEP6Objecti@8
_ZN3Gfx18opEndMarkedContentEP6Objecti@8
_ZN3Gfx18opSetFillCMYKColorEP6Objecti@8
_ZN3Gfx19doTilingPatternFillEP16GfxTilingPatternbbb@16
_ZN3Gfx19gouraudFillTriangleEddP8GfxColorddS1_ddS1_iiPN8GfxState20ReusablePathIteratorE@72
_ZN3Gfx19gouraudFillTriangleEddddddddddiP25GfxGouraudTriangleShadingPN8GfxState20ReusablePathIteratorE@92
_ZN3Gfx19opCloseEOFillStrokeEP6Objecti@8
_ZN3Gfx19opSetFillColorSpaceEP6Objecti@8
_ZN3Gfx19opSetStrokeRGBColorEP6Objecti@8
_ZN3Gfx20doShadingPatternFillEP17GfxShadingPatternbbb@16
_ZN3Gfx20opBeginMarkedContentEP6Objecti@8
_ZN3Gfx20opSetRenderingIntentEP6Objecti@8
_ZN3Gfx20opSetStrokeCMYKColorEP6Objecti@8
_ZN3Gfx21opSetStrokeColorSpaceEP6Objecti@8
_ZN3Gfx22checkTransparencyGroupEP4Dict@4
_ZN3Gfx23doGouraudTriangleShFillEP25GfxGouraudTriangleShading@4
_ZN3Gfx2goEb@4
_ZN3Gfx5opTabE DATA
_ZN3Gfx6doFormEP6Object@4
_ZN3Gfx6execOpEP6ObjectS1_i@12
_ZN3Gfx6findOpEPKc@4
_ZN3Gfx6getPosEv
_ZN3Gfx6opClipEP6Objecti@8
_ZN3Gfx6opFillEP6Objecti@8
_ZN3Gfx6opSaveEP6Objecti@8
_ZN3Gfx7displayEP6Objectb@8
_ZN3Gfx7doImageEP6ObjectP6Streamb@12
_ZN3Gfx8checkArgEP6Object8TchkType@8
_ZN3Gfx8drawFormEP6ObjectP4DictPKdS5_bbP13GfxColorSpacebbbP8FunctionP8GfxColor@48
_ZN3Gfx8opConcatEP6Objecti@8
_ZN3Gfx8opEOClipEP6Objecti@8
_ZN3Gfx8opEOFillEP6Objecti@8
_ZN3Gfx8opLineToEP6Objecti@8
_ZN3Gfx8opMoveToEP6Objecti@8
_ZN3Gfx8opShFillEP6Objecti@8
_ZN3Gfx8opStrokeEP6Objecti@8
_ZN3Gfx9doEndPathEv
_ZN3Gfx9drawAnnotEP6ObjectP11AnnotBorderP10AnnotColorddddi@48
_ZN3Gfx9fillPatchEPK8GfxPatchiidiPK19GfxPatchMeshShading@28
_ZN3Gfx9opCurveToEP6Objecti@8
_ZN3Gfx9opEndPathEP6Objecti@8
_ZN3Gfx9opEndTextEP6Objecti@8
_ZN3Gfx9opRestoreEP6Objecti@8
_ZN3Gfx9opSetDashEP6Objecti@8
_ZN3Gfx9opSetFlatEP6Objecti@8
_ZN3Gfx9opSetFontEP6Objecti@8
_ZN3Gfx9opXObjectEP6Objecti@8
_ZN3Gfx9saveStateEv
_ZN3GfxC1EP6PDFDocP9OutputDevP4DictPK12PDFRectangleS8_PFbPvES9_PS_@32
_ZN3GfxC1EP6PDFDocP9OutputDeviP4DictddPK12PDFRectangleS8_iPFbPvES9_P4XRef@56
_ZN3GfxC2EP6PDFDocP9OutputDevP4DictPK12PDFRectangleS8_PFbPvES9_PS_@32
_ZN3GfxC2EP6PDFDocP9OutputDeviP4DictddPK12PDFRectangleS8_iPFbPvES9_P4XRef@56
_ZN3GfxD1Ev
_ZN3GfxD2Ev
_ZN4Dict16findAvailableKeyERKNSt3__112basic_stringIcNS0_11char_traitsIcEENS0_9allocatorIcEEEE@8
_ZN4Dict3addEPKcO6Object@8
_ZN4Dict3setEPKcO6Object@8
_ZN4Dict4findEPKc@4
_ZN4Dict6removeEPKc@4
_ZN4DictC1EP4XRef@4
_ZN4DictC1EPKS_@4
_ZN4DictC2EP4XRef@4
_ZN4DictC2EPKS_@4
_ZN4Form11fieldLookupEP4DictPKc
_ZN4Form15findWidgetByRefE3Ref@8
_ZN4Form15postWidgetsLoadEv
_ZN4Form19createFieldFromDictEO6ObjectP6PDFDoc3RefP9FormFieldPNSt3__13setIiNS7_4lessIiEENS7_9allocatorIiEEEE
_ZN4Form25addFontToDefaultResourcesERKNSt3__112basic_stringIcNS0_11char_traitsIcEENS0_9allocatorIcEEEES8_b@16
_ZN4Form25addFontToDefaultResourcesERKNSt3__112basic_stringIcNS0_11char_traitsIcEENS0_9allocatorIcEEEEiS8_S8_b@24
_ZN4Form27ensureFontsForAllCharactersEPK9GooStringRKNSt3__112basic_stringIcNS3_11char_traitsIcEENS3_9allocatorIcEEEEP12GfxResources@16
_ZN4Form30doGetAddFontToDefaultResourcesEjRK7GfxFont@12
_ZN4Form30findPdfFontNameToUseForSigningEv@4
_ZN4Form5resetERKNSt3__16vectorINS0_12basic_stringIcNS0_11char_traitsIcEENS0_9allocatorIcEEEENS5_IS7_EEEEb@8
_ZN4FormC1EP6PDFDoc@4
_ZN4FormC2EP6PDFDoc@4
_ZN4FormD1Ev
_ZN4FormD2Ev
_ZN4OCGs12findOcgByRefE3Ref@8
_ZN4OCGs19optContentIsVisibleEPK6Object@4
_ZN4OCGs20evalOCVisibilityExprEPK6Objecti@8
_ZN4OCGs5allOnEP5Array@4
_ZN4OCGs5anyOnEP5Array@4
_ZN4OCGs6allOffEP5Array@4
_ZN4OCGs6anyOffEP5Array@4
_ZN4OCGsC1EP6ObjectP4XRef@8
_ZN4OCGsC2EP6ObjectP4XRef@8
_ZN4Page11removeAnnotEP5Annot@4
_ZN4Page11replaceXRefEP4XRef@4
_ZN4Page12displaySliceEP9OutputDevddibbiiiibPFbPvES2_PFbP5AnnotS2_ES2_b@72
_ZN4Page12processLinksEP9OutputDev@4
_ZN4Page13getDefaultCTMEPdddibb@32
_ZN4Page14getFormWidgetsEv@4
_ZN4Page15getResourceDictEv
_ZN4Page19getAdditionalActionENS_25PageAdditionalActionsTypeE@8
_ZN4Page19getResourceDictCopyEP4XRef@4
_ZN4Page20loadStandaloneFieldsEP6AnnotsP4Form@8
_ZN4Page21getResourceDictObjectEv
_ZN4Page7displayEP3Gfx@4
_ZN4Page7displayEP9OutputDevddibbbPFbPvES2_PFbP5AnnotS2_ES2_b@56
_ZN4Page7makeBoxEddibbddddP12PDFRectanglePb@68
_ZN4Page8addAnnotEP5Annot@4
_ZN4Page8getLinksEv@4
_ZN4Page9createGfxEP9OutputDevddibbiiiibPFbPvES2_P4XRef@64
_ZN4Page9getAnnotsEP4XRef@4
_ZN4Page9loadThumbEPPhPiS2_S2_@16
_ZN4PageC1EP6PDFDociO6Object3RefP9PageAttrsP4Form@28
_ZN4PageC2EP6PDFDociO6Object3RefP9PageAttrsP4Form@28
_ZN4PageD1Ev
_ZN4PageD2Ev
_ZN4XRef10getCatalogEv@4
_ZN4XRef10getDocInfoEv@4
_ZN4XRef10parseEntryExP9XRefEntry@12
_ZN4XRef11getNumEntryEx@8
_ZN4XRef12getDocInfoNFEv@4
_ZN4XRef12getStreamEndExPx@12
_ZN4XRef13constructXRefEPbb@8
_ZN4XRef13readXRefTableEP6ParserPxPNSt3__16vectorIxNS3_9allocatorIxEEEEPNS4_IiNS5_IiEEEE@16
_ZN4XRef13readXRefUntilEiPNSt3__16vectorIiNS0_9allocatorIiEEEE@8
_ZN4XRef13removeDocInfoEv
_ZN4XRef13setEncryptionEibPKhiii14CryptAlgorithm@28
_ZN4XRef14isRefEncryptedE3Ref@8
_ZN4XRef14readXRefStreamEP6StreamPx@8
_ZN4XRef15addStreamObjectEP4DictPcx17StreamCompression@20
_ZN4XRef15addStreamObjectEP4DictPhx17StreamCompression@20
_ZN4XRef15markUnencryptedEP6Object@4
_ZN4XRef15markUnencryptedEv
_ZN4XRef16scanSpecialFlagsEv
_ZN4XRef16writeTableToFileEP9OutStreamb@8
_ZN4XRef17addIndirectObjectERK6Object@4
_ZN4XRef17setModifiedObjectEPK6Object3Ref@12
_ZN4XRef19writeStreamToBufferEP9GooStringP4DictPS_@12
_ZN4XRef20removeIndirectObjectE3Ref@8
_ZN4XRef21createDocInfoIfNeededEP3Ref@8
_ZN4XRef21readXRefStreamSectionEP6StreamPKiii@16
_ZN4XRef23getEncryptionParametersEPPhP14CryptAlgorithmPi@12
_ZN4XRef3addE3Refxb@20
_ZN4XRef3addEiixb@20
_ZN4XRef4lockEv ; Check!!! forwards to _ZNSt3__115recursive_mutex4lockEv in libc++.dll (ordinal 0)
_ZN4XRef5fetchE3Refi@16
_ZN4XRef5fetchEiiiPx@20
_ZN4XRef6resizeEi@4
_ZN4XRef6unlockEv ; Check!!! forwards to _ZNSt3__115recursive_mutex6unlockEv in libc++.dll (ordinal 0)
_ZN4XRef7reserveEi@4
_ZN4XRef8getEntryEib@8
_ZN4XRef8readXRefEPxPNSt3__16vectorIxNS1_9allocatorIxEEEEPNS2_IiNS3_IiEEEE@12
_ZN4XRef9writeXRefEPNS_10XRefWriterEb@8
_ZN4XRefC1EP10BaseStreamxxPbbRKNSt3__18functionIFvvEEE@32
_ZN4XRefC1EPK6Object@4
_ZN4XRefC1Ev
_ZN4XRefC2EP10BaseStreamxxPbbRKNSt3__18functionIFvvEEE@32
_ZN4XRefC2EPK6Object@4
_ZN4XRefC2Ev
_ZN4XRefD1Ev
_ZN4XRefD2Ev
_ZN5Annot10createFormEPK9GooStringPKdbO6Object@20
_ZN5Annot10createFormEPK9GooStringPKdbP4Dict@20
_ZN5Annot10initializeEP6PDFDocP4Dict@8
_ZN5Annot10layoutTextEPK9GooStringPS0_PiRK7GfxFontPddS4_bPb
_ZN5Annot11setContentsEONSt3__110unique_ptrI9GooStringNS0_14default_deleteIS2_EEEE@4
_ZN5Annot11setModifiedEP9GooString@4
_ZN5Annot12readArrayNumEP6ObjectiPd@12
_ZN5Annot16setNewAppearanceEO6Object@4
_ZN5Annot18setAppearanceStateEPKc@4
_ZN5Annot19createResourcesDictEPKcO6ObjectS1_dS1_@24
_ZN5Annot20getAppearanceResDictEv@4
_ZN5Annot20invalidateAppearanceEv
_ZN5Annot23removeReferencedObjectsEv ; Check!!! Couldn't determine function argument count. Function doesn't return. 
_ZN5Annot4drawEP3Gfxb@8
_ZN5Annot6updateEPKcO6Object@8
_ZN5Annot7getXMaxEv
_ZN5Annot7getXMinEv
_ZN5Annot7getYMaxEv
_ZN5Annot7getYMinEv
_ZN5Annot7setNameEP9GooString@4
_ZN5Annot7setPageEib@8
_ZN5Annot7setRectEPK12PDFRectangle@4
_ZN5Annot7setRectEdddd@32
_ZN5Annot8setColorEONSt3__110unique_ptrI10AnnotColorNS0_14default_deleteIS2_EEEE@4
_ZN5Annot8setFlagsEj@4
_ZN5Annot9decRefCntEv
_ZN5Annot9incRefCntEv
_ZN5Annot9isVisibleEb@4
_ZN5Annot9setBorderEONSt3__110unique_ptrI11AnnotBorderNS0_14default_deleteIS2_EEEE@4
_ZN5AnnotC1EP6PDFDocO6Object@8
_ZN5AnnotC1EP6PDFDocO6ObjectPKS2_@12
_ZN5AnnotC1EP6PDFDocP12PDFRectangle@8
_ZN5AnnotC2EP6PDFDocO6Object@8
_ZN5AnnotC2EP6PDFDocO6ObjectPKS2_@12
_ZN5AnnotC2EP6PDFDocP12PDFRectangle@8
_ZN5AnnotD0Ev
_ZN5AnnotD1Ev
_ZN5AnnotD2Ev
_ZN5Array3addEO6Object@4
_ZN5Array6removeEi@4
_ZN5ArrayC1EP4XRef@4
_ZN5ArrayC2EP4XRef@4
_ZN5ArrayD1Ev
_ZN5ArrayD2Ev
_ZN5Lexer14skipToNextLineEv
_ZN5Lexer6getObjEPKci@12
_ZN5Lexer6getObjEi@8
_ZN5Lexer7getCharEb@4
_ZN5Lexer7isSpaceEi
_ZN5Lexer8lookCharEv
_ZN5LexerC1EP4XRefP6Object@8
_ZN5LexerC1EP4XRefP6Stream@8
_ZN5LexerC2EP4XRefP6Object@8
_ZN5LexerC2EP4XRefP6Stream@8
_ZN5LexerD1Ev@4
_ZN5LexerD2Ev@4
_ZN5LinksC1EP6Annots@4
_ZN5LinksC2EP6Annots@4
_ZN5LinksD1Ev
_ZN5LinksD2Ev
_ZN5Movie10parseMovieEPK6Object@4
_ZN5Movie21getFloatingWindowSizeEPiS0_@8
_ZN5MovieC1EPK6Object@4
_ZN5MovieC1EPK6ObjectS2_@8
_ZN5MovieC1ERKS_@4
_ZN5MovieC2EPK6Object@4
_ZN5MovieC2EPK6ObjectS2_@8
_ZN5MovieC2ERKS_@4
_ZN5MovieD1Ev
_ZN5MovieD2Ev
_ZN5Sound10parseSoundEP6Object
_ZN5Sound9getStreamEv
_ZN5SoundC1EPK6Objectb@8
_ZN5SoundC2EPK6Objectb@8
_ZN5SoundD1Ev
_ZN5SoundD2Ev
_ZN6JSInfo10containsJSEv
_ZN6JSInfo14scanLinkActionEP10LinkActionPKc@8
_ZN6JSInfo4scanEi@4
_ZN6JSInfo6scanJSEi@4
_ZN6JSInfo6scanJSEiP6_iobufPK10UnicodeMap@12
_ZN6JSInfo6scanJSEib@8
_ZN6JSInfo7printJSEPK9GooString@4
_ZN6JSInfoC1EP6PDFDoci@8
_ZN6JSInfoC2EP6PDFDoci@8
_ZN6JSInfoD1Ev
_ZN6JSInfoD2Ev
_ZN6Object10dictRemoveEPKc@4
_ZN6Object11arrayRemoveEi@4
_ZN6Object11streamCloseEv@8
_ZN6Object11streamResetEv@8
_ZN6Object13streamGetCharEv@8
_ZN6Object14streamGetCharsEiPh@8
_ZN6Object4freeEv
_ZN6Object7dictAddEPKcOS_@8
_ZN6Object7dictSetEPKcOS_@8
_ZN6Object8arrayAddEOS_@4
_ZN6PDFDoc10getOutlineEv
_ZN6PDFDoc10markObjectEP6ObjectP4XRefS3_jiiPNSt3__13setIP4DictNS4_4lessIS7_EENS4_9allocatorIS7_EEEE@28
_ZN6PDFDoc10savePageAsERK9GooStringi@8
_ZN6PDFDoc11ErrorPDFDocEiONSt3__110unique_ptrI9GooStringNS0_14default_deleteIS2_EEEE
_ZN6PDFDoc11checkFooterEv
_ZN6PDFDoc11checkHeaderEv
_ZN6PDFDoc11displayPageEP9OutputDeviddibbbPFbPvES2_PFbP5AnnotS2_ES2_b@60
_ZN6PDFDoc11getNumPagesEv
_ZN6PDFDoc11writeHeaderEP9OutStreamii
_ZN6PDFDoc11writeObjectEP6ObjectP9OutStreamP4XRefjPh14CryptAlgorithmi3RefPNSt3__13setIP4DictNS9_4lessISC_EENS9_9allocatorISC_EEEE
_ZN6PDFDoc11writeObjectEP6ObjectP9OutStreamP4XRefjPh14CryptAlgorithmiiiPNSt3__13setIP4DictNS8_4lessISB_EENS8_9allocatorISB_EEEE
_ZN6PDFDoc11writeStreamEP6StreamP9OutStream
_ZN6PDFDoc11writeStringEPK9GooStringP9OutStreamPKh14CryptAlgorithmi3Ref
_ZN6PDFDoc12displayPagesEP9OutputDeviiddibbbPFbPvES2_PFbP5AnnotS2_ES2_@60
_ZN6PDFDoc12getStartXRefEb@4
_ZN6PDFDoc12isLinearizedEb@4
_ZN6PDFDoc12markAcroFormEP6ObjectP4XRefS3_jii@24
_ZN6PDFDoc12processLinksEP9OutputDevi@8
_ZN6PDFDoc13hasJavascriptEv
_ZN6PDFDoc13strToLongLongEPKc@4
_ZN6PDFDoc14markDictionaryEP4DictP4XRefS3_jiiPNSt3__13setIS1_NS4_4lessIS1_EENS4_9allocatorIS1_EEEE@28
_ZN6PDFDoc14writeRawStreamEP6StreamP9OutStream
_ZN6PDFDoc15checkEncryptionERKNSt3__18optionalI9GooStringEES5_@8
_ZN6PDFDoc15markAnnotationsEP6ObjectP4XRefS3_jiiPNSt3__13setIP4DictNS4_4lessIS7_EENS4_9allocatorIS7_EEEE@28
_ZN6PDFDoc15markPageObjectsEP4DictP4XRefS3_jiiPNSt3__13setIS1_NS4_4lessIS1_EENS4_9allocatorIS1_EEEE@28
_ZN6PDFDoc15replacePageDictEiiPK12PDFRectangleS2_@16
_ZN6PDFDoc15writeDictionaryEP4DictP9OutStreamP4XRefjPh14CryptAlgorithmi3RefPNSt3__13setIS1_NS9_4lessIS1_EENS9_9allocatorIS1_EEEE
_ZN6PDFDoc16displayPageSliceEP9OutputDeviddibbbiiiiPFbPvES2_PFbP5AnnotS2_ES2_b@76
_ZN6PDFDoc16getLinearizationEv
_ZN6PDFDoc16writePageObjectsEP9OutStreamP4XRefjb@16
_ZN6PDFDoc17createTrailerDictEibxP3RefP4XRefPKcx
_ZN6PDFDoc17extractPDFSubtypeEv
_ZN6PDFDoc17writeObjectFooterEP9OutStream
_ZN6PDFDoc17writeObjectHeaderEP3RefP9OutStream
_ZN6PDFDoc18checkLinearizationEv
_ZN6PDFDoc18getSignatureFieldsEv@4
_ZN6PDFDoc19saveCompleteRewriteEP9OutStream@4
_ZN6PDFDoc20saveWithoutChangesAsEP9OutStream@4
_ZN6PDFDoc20saveWithoutChangesAsERK9GooString@4
_ZN6PDFDoc21getDocInfoStringEntryEPKc@8
_ZN6PDFDoc21saveIncrementalUpdateEP9OutStream@4
_ZN6PDFDoc21setDocInfoStringEntryEPKcP9GooString@8
_ZN6PDFDoc21writeXRefTableTrailerEO6ObjectP4XRefbxP9OutStreamS3_
_ZN6PDFDoc21writeXRefTableTrailerExP4XRefbiP9OutStreamb@28
_ZN6PDFDoc22writeXRefStreamTrailerEO6ObjectP4XRefP3RefxP9OutStreamS3_
_ZN6PDFDoc24getMainXRefEntriesOffsetEb@4
_ZN6PDFDoc4signERKNSt3__112basic_stringIcNS0_11char_traitsIcEENS0_9allocatorIcEEEES8_S8_P9GooStringiRK12PDFRectangleRKS9_SF_ddONS0_10unique_ptrI10AnnotColorNS0_14default_deleteISH_EEEEdSL_SL_PSE_SM_S8_RKNS0_8optionalIS9_EESQ_@88
_ZN6PDFDoc5setupERKNSt3__18optionalI9GooStringEES5_RKNS0_8functionIFvvEEE@12
_ZN6PDFDoc6saveAsEP9OutStream12PDFWriteMode@8
_ZN6PDFDoc6saveAsERK9GooString12PDFWriteMode@8
_ZN6PDFDoc7getPageEi@4
_ZN6PDFDoc8getHintsEv
_ZN6PDFDoc8getLinksEi@8
_ZN6PDFDoc9parsePageEi@4
_ZN6PDFDocC1EONSt3__110unique_ptrI9GooStringNS0_14default_deleteIS2_EEEERKNS0_8optionalIS2_EESA_PvRKNS0_8functionIFvvEEE@20
_ZN6PDFDocC1EP10BaseStreamRKNSt3__18optionalI9GooStringEES7_PvRKNS2_8functionIFvvEEE@20
_ZN6PDFDocC1EPwiRKNSt3__18optionalI9GooStringEES6_PvRKNS1_8functionIFvvEEE@24
_ZN6PDFDocC1Ev ; Check!!! forwards to _ZNSt3__115recursive_mutexC1Ev in libc++.dll (ordinal 0)
_ZN6PDFDocC2EONSt3__110unique_ptrI9GooStringNS0_14default_deleteIS2_EEEERKNS0_8optionalIS2_EESA_PvRKNS0_8functionIFvvEEE@20
_ZN6PDFDocC2EP10BaseStreamRKNSt3__18optionalI9GooStringEES7_PvRKNS2_8functionIFvvEEE@20
_ZN6PDFDocC2EPwiRKNSt3__18optionalI9GooStringEES6_PvRKNS1_8functionIFvvEEE@24
_ZN6PDFDocC2Ev ; Check!!! forwards to _ZNSt3__115recursive_mutexC1Ev in libc++.dll (ordinal 0)
_ZN6PDFDocD1Ev
_ZN6PDFDocD2Ev
_ZN6Parser10makeStreamEO6ObjectPKh14CryptAlgorithmiiiib@32
_ZN6Parser5shiftEPKci@8
_ZN6Parser5shiftEi@4
_ZN6Parser6getObjEbPKh14CryptAlgorithmiiiibb@40
_ZN6Parser6getObjEi@8
_ZN6ParserC1EP4XRefP6Objectb@12
_ZN6ParserC1EP4XRefP6Streamb@12
_ZN6ParserC2EP4XRefP6Objectb@12
_ZN6ParserC2EP4XRefP6Streamb@12
_ZN6ParserD1Ev@4
_ZN6ParserD2Ev@4
_ZN6Splash10clipToPathEP10SplashPathb@8
_ZN6Splash10clipToRectEdddd@32
_ZN6Splash10drawAALineEP10SplashPipeiiibh@24
_ZN6Splash10fillGlyph2EiiP17SplashGlyphBitmapb@16
_ZN6Splash10getLineCapEv
_ZN6Splash10scaleImageEPFbPvPhS1_ES0_15SplashColorModeibiiiibb@44
_ZN6Splash10setLineCapEi@4
_ZN6Splash10shadedFillEP10SplashPathbP13SplashPatternb@16
_ZN6Splash10strokeWideEP10SplashPathd@12
_ZN6Splash11drawAAPixelEP10SplashPipeii@12
_ZN6Splash11flattenPathEP10SplashPathPdd@16
_ZN6Splash11getFlatnessEv
_ZN6Splash11getLineJoinEv
_ZN6Splash11getSoftMaskEv
_ZN6Splash11setFlatnessEd@8
_ZN6Splash11setLineDashEONSt3__16vectorIdNS0_9allocatorIdEEEEd@12
_ZN6Splash11setLineJoinEi@4
_ZN6Splash11setSoftMaskEP12SplashBitmap@4
_ZN6Splash11setTransferEPhS0_S0_S0_@16
_ZN6Splash12flattenCurveEddddddddPddP10SplashPath@80
_ZN6Splash12getBlendFuncEv
_ZN6Splash12getFillAlphaEv
_ZN6Splash12getLineWidthEv
_ZN6Splash12restoreStateEv
_ZN6Splash12setBlendFuncEPFvPhS0_S0_15SplashColorModeE@4
_ZN6Splash12setFillAlphaEd@8
_ZN6Splash12setLineWidthEd@8
_ZN6Splash12strokeNarrowEP10SplashPath@4
_ZN6Splash13fillImageMaskEPFbPvPhES0_iiPdb@24
_ZN6Splash13getMiterLimitEv
_ZN6Splash13pipeRunAABGR8EP10SplashPipe@4
_ZN6Splash13pipeRunAARGB8EP10SplashPipe@4
_ZN6Splash13setMiterLimitEd@8
_ZN6Splash13vertFlipImageEP12SplashBitmapiii@16
_ZN6Splash14getFillPatternEv
_ZN6Splash14getStrokeAlphaEv
_ZN6Splash14makeDashedPathEP10SplashPath@4
_ZN6Splash14makeStrokePathEP10SplashPathdb@16
_ZN6Splash14pathAllOutsideEP10SplashPath@4
_ZN6Splash14pipeRunAACMYK8EP10SplashPipe@4
_ZN6Splash14pipeRunAAMono1EP10SplashPipe@4
_ZN6Splash14pipeRunAAMono8EP10SplashPipe@4
_ZN6Splash14pipeRunAAXBGR8EP10SplashPipe@4
_ZN6Splash14setFillPatternEP13SplashPattern@4
_ZN6Splash14setStrokeAlphaEd@8
_ZN6Splash15blitTransparentEP12SplashBitmapiiiiii@28
_ZN6Splash15clipResetToRectEdddd@32
_ZN6Splash15drawAAPixelInitEv
_ZN6Splash15fillWithPatternEP10SplashPathbP13SplashPatternd@20
_ZN6Splash15getStrokeAdjustEv
_ZN6Splash15scaleMaskYupXupEPFbPvPhES0_iiiiP12SplashBitmap@28
_ZN6Splash15setPatternAlphaEdd@16
_ZN6Splash15setStrokeAdjustEb@4
_ZN6Splash16blitImageClippedEP12SplashBitmapbiiiiii@32
_ZN6Splash16getLineDashPhaseEv
_ZN6Splash16getStrokePatternEv
_ZN6Splash16scaleImageYupXupEPFbPvPhS1_ES0_15SplashColorModeibiiiiP12SplashBitmap
_ZN6Splash16setFillOverprintEb@4
_ZN6Splash16setOverprintMaskEjb@8
_ZN6Splash16setOverprintModeEi@4
_ZN6Splash16setStrokePatternEP13SplashPattern@4
_ZN6Splash17clearPatternAlphaEv
_ZN6Splash17pipeRunAADeviceN8EP10SplashPipe@4
_ZN6Splash17pipeRunSimpleBGR8EP10SplashPipe@4
_ZN6Splash17pipeRunSimpleRGB8EP10SplashPipe@4
_ZN6Splash17scaleMaskYdownXupEPFbPvPhES0_iiiiP12SplashBitmap@28
_ZN6Splash17scaleMaskYupXdownEPFbPvPhES0_iiiiP12SplashBitmap@28
_ZN6Splash18pipeRunSimpleCMYK8EP10SplashPipe@4
_ZN6Splash18pipeRunSimpleMono1EP10SplashPipe@4
_ZN6Splash18pipeRunSimpleMono8EP10SplashPipe@4
_ZN6Splash18pipeRunSimpleXBGR8EP10SplashPipe@4
_ZN6Splash18scaleImageYdownXupEPFbPvPhS1_ES0_15SplashColorModeibiiiiP12SplashBitmap@40
_ZN6Splash18scaleImageYupXdownEPFbPvPhS1_ES0_15SplashColorModeibiiiiP12SplashBitmap@40
_ZN6Splash18setStrokeOverprintEb@4
_ZN6Splash19compositeBackgroundEPKh@4
_ZN6Splash19scaleMaskYdownXdownEPFbPvPhES0_iiiiP12SplashBitmap@28
_ZN6Splash20scaleImageYdownXdownEPFbPvPhS1_ES0_15SplashColorModeibiiiiP12SplashBitmap@40
_ZN6Splash21getInNonIsolatedGroupEv
_ZN6Splash21pipeRunSimpleDeviceN8EP10SplashPipe@4
_ZN6Splash21setInNonIsolatedGroupEP12SplashBitmapii@12
_ZN6Splash22arbitraryTransformMaskEPFbPvPhES0_iiPdb@24
_ZN6Splash23arbitraryTransformImageEPFbPvPhS1_EPFvS0_P12SplashBitmapES0_15SplashColorModeibiiPdbb@44
_ZN6Splash24scaleImageYupXupBilinearEPFbPvPhS1_ES0_15SplashColorModeibiiiiP12SplashBitmap@40
_ZN6Splash25gouraudTriangleShadedFillEP18SplashGouraudColor@4
_ZN6Splash25pipeResultColorAlphaBlendE DATA
_ZN6Splash27pipeResultColorAlphaNoBlendE DATA
_ZN6Splash27pipeResultColorNoAlphaBlendE DATA
_ZN6Splash4fillEP10SplashPathb@8
_ZN6Splash5clearEPhh@8
_ZN6Splash6strokeEP10SplashPath@4
_ZN6Splash7getClipEv
_ZN6Splash7pipeRunEP10SplashPipe@4
_ZN6Splash7xorFillEP10SplashPathb@8
_ZN6Splash8blitMaskEP12SplashBitmapii16SplashClipResult@16
_ZN6Splash8drawSpanEP10SplashPipeiiib@20
_ZN6Splash8dumpPathEP10SplashPath@4
_ZN6Splash8fillCharEddiP10SplashFont@24
_ZN6Splash8pipeIncXEP10SplashPipe@4
_ZN6Splash8pipeInitEP10SplashPipeiiP13SplashPatternPhhbbbh@40
_ZN6Splash9blitImageEP12SplashBitmapbii@16
_ZN6Splash9blitImageEP12SplashBitmapbii16SplashClipResult@20
_ZN6Splash9compositeEP12SplashBitmapiiiiiibbbd@48
_ZN6Splash9drawImageEPFbPvPhS1_EPFvS0_P12SplashBitmapES0_15SplashColorModebiiPdbb@40
_ZN6Splash9drawPixelEP10SplashPipeiib@16
_ZN6Splash9dumpXPathEP11SplashXPath@4
_ZN6Splash9fillGlyphEddP17SplashGlyphBitmap@20
_ZN6Splash9getBBoxFPEP10SplashPathPdS2_S2_S2_@20
_ZN6Splash9getMatrixEv
_ZN6Splash9getScreenEv
_ZN6Splash9pipeSetXYEP10SplashPipeii@12
_ZN6Splash9saveStateEv
_ZN6Splash9scaleMaskEPFbPvPhES0_iiii@24
_ZN6Splash9setMatrixEPd@4
_ZN6Splash9setScreenEP12SplashScreen@4
_ZN6Splash9transformEPKdddPdS2_@28
_ZN6SplashC1EP12SplashBitmapbP12SplashScreen@12
_ZN6SplashC1EP12SplashBitmapbP18SplashScreenParams@12
_ZN6SplashC2EP12SplashBitmapbP12SplashScreen@12
_ZN6SplashC2EP12SplashBitmapbP18SplashScreenParams@12
_ZN6SplashD1Ev
_ZN6SplashD2Ev
_ZN6Stream10addFiltersEP4Dicti@8
_ZN6Stream10getRawCharEv
_ZN6Stream10makeFilterEPKcPS_P6ObjectiP4Dict@20
_ZN6Stream11getPSFilterEiPKc@8
_ZN6Stream11getRawCharsEiPi@8
_ZN6Stream12discardCharsEj@4
_ZN6Stream5closeEv
_ZN6Stream7getLineEPci@8
_ZN6Stream8getCharsEiPh@8
_ZN6StreamC2Ev
_ZN6StreamD0Ev DATA
_ZN6StreamD1Ev
_ZN6StreamD2Ev
_ZN7Catalog10getOutlineEv
_ZN7Catalog10getPageRefEi@4
_ZN7Catalog11getFormTypeEv
_ZN7Catalog11getMarkInfoEv
_ZN7Catalog11getNumPagesEv
_ZN7Catalog11getPageModeEv
_ZN7Catalog12embeddedFileEi@8
_ZN7Catalog12getDestsDestEi@8
_ZN7Catalog12getDestsNameEi@4
_ZN7Catalog12indexToLabelEiP9GooString@8
_ZN7Catalog12labelToIndexEP9GooStringPi@8
_ZN7Catalog12readMetadataEv@4
_ZN7Catalog13cachePageTreeEi@4
_ZN7Catalog13getCreateFormEv
_ZN7Catalog13getJSNameTreeEv
_ZN7Catalog13getPageLayoutEv
_ZN7Catalog14createLinkDestEP6Object@8
_ZN7Catalog15addEmbeddedFileEP7GooFileRKNSt3__112basic_stringIcNS2_11char_traitsIcEENS2_9allocatorIcEEEE@8
_ZN7Catalog15getDestNameTreeEv
_ZN7Catalog15hasEmbeddedFileERKNSt3__112basic_stringIcNS0_11char_traitsIcEENS0_9allocatorIcEEEE@4
_ZN7Catalog16getCreateOutlineEv
_ZN7Catalog16getPageLabelInfoEv
_ZN7Catalog17addFormToAcroFormE3Ref@8
_ZN7Catalog17getStructTreeRootEv
_ZN7Catalog19getAdditionalActionENS_29DocumentAdditionalActionsTypeE@8
_ZN7Catalog19getDestNameTreeDestEi@8
_ZN7Catalog19setAcroFormModifiedEv
_ZN7Catalog20getViewerPreferencesEv
_ZN7Catalog22removeFormFromAcroFormE3Ref@8
_ZN7Catalog23getEmbeddedFileNameTreeEv
_ZN7Catalog5getJSEi@4
_ZN7Catalog7getFormEv
_ZN7Catalog7getPageEi@4
_ZN7Catalog8findDestEPK9GooString@8
_ZN7Catalog8findPageE3Ref@8
_ZN7Catalog8getDestsEv
_ZN7Catalog8getNamesEv
_ZN7Catalog8numDestsEv
_ZN7CatalogC1EP6PDFDoc@4
_ZN7CatalogC2EP6PDFDoc@4
_ZN7CatalogD1Ev
_ZN7CatalogD2Ev
_ZN7EmbFile4saveEPKc@4
_ZN7EmbFile5save2EP6_iobuf@4
_ZN7EmbFileC1EO6Object@4
_ZN7EmbFileC2EO6Object@4
_ZN7EmbFileD1Ev
_ZN7EmbFileD2Ev
_ZN7GfxFont10locateFontEP4XRefP11PSOutputDevP9GooString@16
_ZN7GfxFont11getFontTypeEP4XRefP4DictP3Ref
_ZN7GfxFont15getExternalFontEP9GooStringb
_ZN7GfxFont15readEmbFontFileEP4XRef@8
_ZN7GfxFont16getAlternateNameEPKc
_ZN7GfxFont17readToUnicodeCMapEP4DictiP17CharCodeToUnicode@12
_ZN7GfxFont18readFontDescriptorEP4XRefP4Dict@8
_ZN7GfxFont8makeFontEP4XRefPKc3RefP4Dict
_ZN7GfxFontC2EPKc3RefONSt3__18optionalINS3_12basic_stringIcNS3_11char_traitsIcEENS3_9allocatorIcEEEEEE11GfxFontTypeS2_@28
_ZN7GfxFontD0Ev DATA
_ZN7GfxFontD1Ev
_ZN7GfxFontD2Ev
_ZN7GfxPath5closeEv
_ZN7GfxPath6appendEPS_@4
_ZN7GfxPath6lineToEdd@16
_ZN7GfxPath6moveToEdd@16
_ZN7GfxPath6offsetEdd@16
_ZN7GfxPath7curveToEdddddd@48
_ZN7GfxPathC1EbddPP10GfxSubpathii@32
_ZN7GfxPathC1Ev
_ZN7GfxPathC2EbddPP10GfxSubpathii@32
_ZN7GfxPathC2Ev
_ZN7GfxPathD1Ev
_ZN7GfxPathD2Ev
_ZN7GooFile4openEPKw
_ZN7GooFile4openERKNSt3__112basic_stringIcNS0_11char_traitsIcEENS0_9allocatorIcEEEE
_ZN7GooFileC1EPv@4
_ZN7GooFileC2EPv@4
_ZN7LinkURIC1EPK6ObjectRKNSt3__18optionalINS3_12basic_stringIcNS3_11char_traitsIcEENS3_9allocatorIcEEEEEE@8
_ZN7LinkURIC2EPK6ObjectRKNSt3__18optionalINS3_12basic_stringIcNS3_11char_traitsIcEENS3_9allocatorIcEEEEEE@8
_ZN7LinkURID0Ev
_ZN7LinkURID1Ev
_ZN7LinkURID2Ev
_ZN7Outline10setOutlineERKNSt3__16vectorINS_15OutlineTreeNodeENS0_9allocatorIS2_EEEE@4
_ZN7Outline11insertChildERKNSt3__112basic_stringIcNS0_11char_traitsIcEENS0_9allocatorIcEEEEij@12
_ZN7Outline11removeChildEj@4
_ZN7Outline22addOutlineTreeNodeListERKNSt3__16vectorINS_15OutlineTreeNodeENS0_9allocatorIS2_EEEER3RefS9_S9_@16
_ZN7OutlineC1EP6ObjectP4XRefP6PDFDoc@12
_ZN7OutlineC2EP6ObjectP4XRefP6PDFDoc@12
_ZN7OutlineD1Ev
_ZN7OutlineD2Ev
_ZN8AnnotInk10initializeEP6PDFDocP4Dict@8
_ZN8AnnotInk10setInkListEPP9AnnotPathi@8
_ZN8AnnotInk11freeInkListEv
_ZN8AnnotInk12parseInkListEP5Array@12
_ZN8AnnotInk12writeInkListEPP9AnnotPathiP5Array@12
_ZN8AnnotInk4drawEP3Gfxb@8
_ZN8AnnotInkC1EP6PDFDocO6ObjectPKS2_@12
_ZN8AnnotInkC1EP6PDFDocP12PDFRectangle@8
_ZN8AnnotInkC2EP6PDFDocO6ObjectPKS2_@12
_ZN8AnnotInkC2EP6PDFDocP12PDFRectangle@8
_ZN8AnnotInkD0Ev
_ZN8AnnotInkD1Ev
_ZN8AnnotInkD2Ev
_ZN8FileSpec15getEmbeddedFileEv
_ZN8FileSpec17newFileSpecObjectEP4XRefP7GooFileRKNSt3__112basic_stringIcNS4_11char_traitsIcEENS4_9allocatorIcEEEE
_ZN8FileSpec22getFileNameForPlatformEv
_ZN8FileSpecC1EPK6Object@4
_ZN8FileSpecC2EPK6Object@4
_ZN8FileSpecD1Ev
_ZN8FileSpecD2Ev
_ZN8FoFiBase8readFileEPKcPi
_ZN8FoFiBaseC1EPKhib@12
_ZN8FoFiBaseC2EPKhib@12
_ZN8FoFiBaseD0Ev
_ZN8FoFiBaseD1Ev
_ZN8FoFiBaseD2Ev
_ZN8FontInfoC1EP7GfxFontP4XRef@8
_ZN8FontInfoC2EP7GfxFontP4XRef@8
_ZN8Function4initEP4Dict@4
_ZN8Function5parseEP6Object
_ZN8Function5parseEP6ObjectPNSt3__13setIiNS2_4lessIiEENS2_9allocatorIiEEEE@4
_ZN8FunctionC2EPKS_@4
_ZN8FunctionC2Ev
_ZN8FunctionD0Ev DATA
_ZN8FunctionD1Ev
_ZN8FunctionD2Ev
_ZN8GfxState10XYZProfileE DATA
_ZN8GfxState10clipToRectEdddd@32
_ZN8GfxState11sRGBProfileE DATA
_ZN8GfxState11setLineDashEONSt3__16vectorIdNS0_9allocatorIdEEEEd@12
_ZN8GfxState11setTransferEPP8Function@4
_ZN8GfxState14parseBlendModeEP6ObjectP12GfxBlendMode@8
_ZN8GfxState14setFillPatternEP10GfxPattern@4
_ZN8GfxState15shiftCTMAndClipEdd@16
_ZN8GfxState16clipToStrokePathEv
_ZN8GfxState16setStrokePatternEP10GfxPattern@4
_ZN8GfxState17setDisplayProfileERKNSt3__110shared_ptrIvEE@4
_ZN8GfxState17setFillColorSpaceEP13GfxColorSpace@4
_ZN8GfxState19setStrokeColorSpaceEP13GfxColorSpace@4
_ZN8GfxState21getCmsRenderingIntentEv
_ZN8GfxState23getXYZ2DisplayTransformEv@4
_ZN8GfxState4clipEv
_ZN8GfxState4saveEv
_ZN8GfxState5shiftEdd@16
_ZN8GfxState6setCTMEdddddd@48
_ZN8GfxState7restoreEv
_ZN8GfxState7setFontENSt3__110shared_ptrI7GfxFontEEd@12
_ZN8GfxState7setPathEP7GfxPath@4
_ZN8GfxState9clearPathEv
_ZN8GfxState9concatCTMEdddddd@48
_ZN8GfxState9textShiftEdd@16
_ZN8GfxStateC1EPKS_b@8
_ZN8GfxStateC1EddPK12PDFRectangleib@28
_ZN8GfxStateC2EPKS_b@8
_ZN8GfxStateC2EddPK12PDFRectangleib@28
_ZN8GfxStateD1Ev
_ZN8GfxStateD2Ev
_ZN8GooTimer10getElapsedEv
_ZN8GooTimer4stopEv
_ZN8GooTimer5startEv
_ZN8GooTimerC1Ev
_ZN8GooTimerC2Ev
_ZN8LinkDestC1EPK5Array@4
_ZN8LinkDestC2EPK5Array@4
_ZN8LinkGoToC1EPK6Object@4
_ZN8LinkGoToC2EPK6Object@4
_ZN8LinkGoToD0Ev
_ZN8LinkGoToD1Ev
_ZN8LinkGoToD2Ev
_ZN8NameTree4initEP4XRefP6Object@8
_ZN8NameTree5parseEPK6ObjectRNSt3__13setIiNS3_4lessIiEENS3_9allocatorIiEEEE@8
_ZN8NameTree6lookupEPK9GooString@8
_ZN8NameTree8addEntryEPNS_5EntryE@4
_ZN8NameTree8getValueEi@4
_ZN8NameTreeC1Ev
_ZN8NameTreeC2Ev
_ZN8NameTreeD1Ev
_ZN8NameTreeD2Ev
_ZN8TextPage10updateFontEPK8GfxState@4
_ZN8TextPage12addUnderlineEdddd@32
_ZN8TextPage12incCharCountEi@4
_ZN8TextPage12makeWordListEb@8
_ZN8TextPage13drawSelectionEP9OutputDevdiPK12PDFRectangle14SelectionStylePK8GfxColorS8_@32
_ZN8TextPage14adjustRotationEP8TextLineiiPdS2_S2_S2_@28
_ZN8TextPage14visitSelectionEP20TextSelectionVisitorPK12PDFRectangle14SelectionStyle@12
_ZN8TextPage16getSelectionTextEPK12PDFRectangle14SelectionStyle@8
_ZN8TextPage17getSelectionWordsEPK12PDFRectangle14SelectionStylePi@12
_ZN8TextPage17setMergeCombiningEb@4
_ZN8TextPage18getSelectionRegionEPK12PDFRectangle14SelectionStyled@16
_ZN8TextPage4dumpEPvPFvS0_PKciEb13EndOfLineKindb@20
_ZN8TextPage5clearEv
_ZN8TextPage7addCharEPK8GfxStateddddjiPKji@52
_ZN8TextPage7addLinkEiiiiP9AnnotLink@20
_ZN8TextPage7addWordEP8TextWord@4
_ZN8TextPage7endPageEv
_ZN8TextPage7endWordEv
_ZN8TextPage8coalesceEbdb@16
_ZN8TextPage8coalesceEbdbd@24
_ZN8TextPage8findTextEPKjibbbbbbbPdS2_S2_S2_@52
_ZN8TextPage8findTextEPKjibbbbbbbbPdS2_S2_S2_@56
_ZN8TextPage8findTextEPKjibbbbbbbbbPdS2_S2_S2_P12PDFRectanglePb@68
_ZN8TextPage9beginWordEPK8GfxState@4
_ZN8TextPage9decRefCntEv
_ZN8TextPage9incRefCntEv
_ZN8TextPage9startPageEPK8GfxState@4
_ZN8TextPageC1Ebb@8
_ZN8TextPageC2Ebb@8
_ZN8TextPageD1Ev
_ZN8TextPageD2Ev
_ZN8TextWord12addCombiningEPK8GfxStateP12TextFontInfodddddiijjRK6Matrix@68
_ZN8TextWord14ensureCapacityEi@4
_ZN8TextWord14visitSelectionEP20TextSelectionVisitorPK12PDFRectangle14SelectionStyle@12
_ZN8TextWord16setInitialBoundsEP12TextFontInfodd@20
_ZN8TextWord5cmpYXEPKvS1_
_ZN8TextWord5mergeEPS_@4
_ZN8TextWord7addCharEPK8GfxStateP12TextFontInfoddddiijjRK6Matrix@60
_ZN8TextWordC1EPK8GfxStateid@16
_ZN8TextWordC2EPK8GfxStateid@16
_ZN8TextWordD1Ev
_ZN8TextWordD2Ev
_ZN9AnnotLine10initializeEP6PDFDocP4Dict@8
_ZN9AnnotLine10setCaptionEb@4
_ZN9AnnotLine11setContentsEONSt3__110unique_ptrI9GooStringNS0_14default_deleteIS2_EEEE@4
_ZN9AnnotLine11setVerticesEdddd@32
_ZN9AnnotLine16setInteriorColorEONSt3__110unique_ptrI10AnnotColorNS0_14default_deleteIS2_EEEE@4
_ZN9AnnotLine16setStartEndStyleE20AnnotLineEndingStyleS0_@8
_ZN9AnnotLine19setLeaderLineLengthEd@8
_ZN9AnnotLine20getAppearanceResDictEv@4
_ZN9AnnotLine22generateLineAppearanceEv
_ZN9AnnotLine22setLeaderLineExtensionEd@8
_ZN9AnnotLine4drawEP3Gfxb@8
_ZN9AnnotLine9setIntentENS_15AnnotLineIntentE@4
_ZN9AnnotLineC1EP6PDFDocO6ObjectPKS2_@12
_ZN9AnnotLineC1EP6PDFDocP12PDFRectangle@8
_ZN9AnnotLineC2EP6PDFDocO6ObjectPKS2_@12
_ZN9AnnotLineC2EP6PDFDocP12PDFRectangle@8
_ZN9AnnotLineD0Ev
_ZN9AnnotLineD1Ev
_ZN9AnnotLineD2Ev
_ZN9AnnotPath14parsePathArrayEP5Array@4
_ZN9AnnotPath8getCoordEi@4
_ZN9AnnotPathC1EONSt3__16vectorI10AnnotCoordNS0_9allocatorIS2_EEEE@4
_ZN9AnnotPathC1EP5Array@4
_ZN9AnnotPathC1Ev
_ZN9AnnotPathC2EONSt3__16vectorI10AnnotCoordNS0_9allocatorIS2_EEEE@4
_ZN9AnnotPathC2EP5Array@4
_ZN9AnnotPathC2Ev
_ZN9AnnotPathD1Ev
_ZN9AnnotPathD2Ev
_ZN9AnnotText10initializeEP6PDFDocP4Dict@8
_ZN9AnnotText4drawEP3Gfxb@8
_ZN9AnnotText7setIconEP9GooString@4
_ZN9AnnotText7setOpenEb@4
_ZN9AnnotTextC1EP6PDFDocO6ObjectPKS2_@12
_ZN9AnnotTextC1EP6PDFDocP12PDFRectangle@8
_ZN9AnnotTextC2EP6PDFDocO6ObjectPKS2_@12
_ZN9AnnotTextC2EP6PDFDocP12PDFRectangle@8
_ZN9AnnotTextD0Ev
_ZN9AnnotTextD1Ev
_ZN9AnnotTextD2Ev
_ZN9Attribute14getTypeForNameEPKcP13StructElement
_ZN9Attribute15getDefaultValueENS_4TypeE
_ZN9Attribute17parseUserPropertyEP4Dict
_ZN9Attribute17setFormattedValueEPKc@4
_ZN9Attribute9checkTypeEP13StructElement@4
_ZN9AttributeC1ENS_4TypeEP6Object@8
_ZN9AttributeC1EO9GooStringP6Object@8
_ZN9AttributeC2ENS_4TypeEP6Object@8
_ZN9AttributeC2EO9GooStringP6Object@8
_ZN9AttributeD1Ev
_ZN9AttributeD2Ev
_ZN9FormField11setReadOnlyEb@4
_ZN9FormField13_createWidgetEP6Object3Ref@12
_ZN9FormField13resetChildrenERKNSt3__16vectorINS0_12basic_stringIcNS0_11char_traitsIcEENS0_9allocatorIcEEEENS5_IS7_EEEE@4
_ZN9FormField14findFieldByRefE3Ref@8
_ZN9FormField14setPartialNameERK9GooString@4
_ZN9FormField15findWidgetByRefE3Ref@8
_ZN9FormField20setDefaultAppearanceERKNSt3__112basic_stringIcNS0_11char_traitsIcEENS0_9allocatorIcEEEE@4
_ZN9FormField21getFullyQualifiedNameEv
_ZN9FormField21isAmongExcludedFieldsERKNSt3__16vectorINS0_12basic_stringIcNS0_11char_traitsIcEENS0_9allocatorIcEEEENS5_IS7_EEEE@4
_ZN9FormField22fillChildrenSiblingsIDEv
_ZN9FormField23createWidgetAnnotationsEv
_ZN9FormField24updateChildrenAppearanceEv
_ZN9FormField29findFieldByFullyQualifiedNameERKNSt3__112basic_stringIcNS0_11char_traitsIcEENS0_9allocatorIcEEEE@4
_ZN9FormField5printEi@4
_ZN9FormField5resetERKNSt3__16vectorINS0_12basic_stringIcNS0_11char_traitsIcEENS0_9allocatorIcEEEENS5_IS7_EEEE@4
_ZN9FormField9printTreeEi@4
_ZN9FormFieldC1EP6PDFDocO6Object3RefPS_PNSt3__13setIiNS6_4lessIiEENS6_9allocatorIiEEEE13FormFieldType@28
_ZN9FormFieldC2EP6PDFDocO6Object3RefPS_PNSt3__13setIiNS6_4lessIiEENS6_9allocatorIiEEEE13FormFieldType@28
_ZN9FormFieldD0Ev
_ZN9FormFieldD1Ev
_ZN9FormFieldD2Ev
_ZN9GooString11toLowerCaseERKNSt3__112basic_stringIcNS0_11char_traitsIcEENS0_9allocatorIcEEEE
_ZN9GooString20prependUnicodeMarkerEv
_ZN9GooString6formatEPKcz
_ZN9GooString7appendfEPKcz
_ZN9GooString7formatvEPKcPc
_ZN9GooString8appendfvEPKcPc@8
_ZN9GooString9lowerCaseERNSt3__112basic_stringIcNS0_11char_traitsIcEENS0_9allocatorIcEEEE
_ZN9GooString9lowerCaseEv
_ZN9ImgWriterD0Ev DATA
_ZN9ImgWriterD1Ev
_ZN9ImgWriterD2Ev
_ZN9MemStreamD0Ev
_ZN9MemStreamD1Ev
_ZN9MemStreamD2Ev
_ZN9OutStreamC2Ev
_ZN9OutStreamD0Ev DATA
_ZN9OutStreamD1Ev
_ZN9OutStreamD2Ev
_ZN9OutputDev10endProfileEv@4
_ZN9OutputDev12cvtDevToUserEddPdS0_@24
_ZN9OutputDev12cvtUserToDevEddPiS0_@24
_ZN9OutputDev12startProfileEv
_ZN9OutputDev13drawImageMaskEP8GfxStateP6ObjectP6Streamiibbb@32
_ZN9OutputDev13setDefaultCTMEPKd@4
_ZN9OutputDev14beginType3CharEP8GfxStateddddjPKji@48
_ZN9OutputDev15drawMaskedImageEP8GfxStateP6ObjectP6StreamiiP16GfxImageColorMapbS5_iibb@48
_ZN9OutputDev16endMarkedContentEP8GfxState@4
_ZN9OutputDev18beginMarkedContentEPKcP4Dict@8
_ZN9OutputDev19drawSoftMaskedImageEP8GfxStateP6ObjectP6StreamiiP16GfxImageColorMapbS5_iiS7_b@48
_ZN9OutputDev24setSoftMaskFromImageMaskEP8GfxStateP6ObjectP6StreamiibbPd@32
_ZN9OutputDev26unsetSoftMaskFromImageMaskEP8GfxStatePd@8
_ZN9OutputDev6opiEndEP8GfxStateP4Dict@8
_ZN9OutputDev8opiBeginEP8GfxStateP4Dict@8
_ZN9OutputDev9drawImageEP8GfxStateP6ObjectP6StreamiiP16GfxImageColorMapbPKib@36
_ZN9OutputDev9markPointEPKc@4
_ZN9OutputDev9markPointEPKcP4Dict@8
_ZN9OutputDev9updateAllEP8GfxState ; Check!!! Couldn't determine function argument count. Function doesn't return. 
_ZN9OutputDevC2Ev
_ZN9OutputDevD0Ev DATA
_ZN9OutputDevD1Ev
_ZN9OutputDevD2Ev
_ZN9PNGWriter13setICCProfileEPKcPhi@12
_ZN9PNGWriter13writePointersEPPhi@8
_ZN9PNGWriter14setSRGBProfileEv
_ZN9PNGWriter4initEP6_iobufiidd@28
_ZN9PNGWriter5closeEv
_ZN9PNGWriter8writeRowEPPh@4
_ZN9PNGWriterC1ENS_6FormatE@4
_ZN9PNGWriterC2ENS_6FormatE@4
_ZN9PNGWriterD0Ev
_ZN9PNGWriterD1Ev
_ZN9PNGWriterD2Ev
_ZNK10AnnotColor13writeToObjectEP4XRef@8
_ZNK10FoFiType1C10eexecWriteEP14Type1CEexecBufPKc@8
_ZNK10FoFiType1C11getEncodingEv
_ZNK10FoFiType1C11getIndexValEPK11Type1CIndexiP14Type1CIndexValPb@16
_ZNK10FoFiType1C12getGlyphNameEi@4
_ZNK10FoFiType1C13getFontMatrixEPd@4
_ZNK10FoFiType1C13writePSStringEPKcPFvPvS1_jES2_@12
_ZNK10FoFiType1C14getCIDToGIDMapEPi@4
_ZNK10FoFiType1C15getDeltaFPArrayEPdi@8
_ZNK10FoFiType1C16getDeltaIntArrayEPii@8
_ZNK10FoFiType1C20eexecWriteCharstringEP14Type1CEexecBufPKhi@12
_ZNK10FoFiType1C6cvtNumEdbP9GooString@16
_ZNK10FoFiType1C7getNameEv
_ZNK10FoFiType1C8getIndexEiP11Type1CIndexPb@12
_ZNK10FoFiType1C9getStringEiPcPb@12
_ZNK10FormWidget10isReadOnlyEv
_ZNK10FormWidget14getMappingNameEv
_ZNK10FormWidget14getPartialNameEv
_ZNK10FormWidget18getAlternateUiNameEv
_ZNK10FormWidget6inRectEdd@16
_ZNK10FormWidget7getRectEPdS0_S0_S0_@16
_ZNK10GfxCIDFont11getNextCharEPKciPjPPKjPiPdS7_S7_S7_@36
_ZNK10GfxCIDFont12getToUnicodeEv
_ZNK10GfxCIDFont13getCollectionEv
_ZNK10GfxCIDFont8getWModeEv
_ZNK10GfxCIDFont8getWidthEPci@8
_ZNK10GfxCIDFont8getWidthEj@4
_ZNK10GfxFontLoc15pathAsGooStringEv
_ZNK10LinkAction11nextActionsEv
_ZNK10UnicodeMap10mapUnicodeEjPci@12
_ZNK10UnicodeMap5matchERKNSt3__112basic_stringIcNS0_11char_traitsIcEENS0_9allocatorIcEEEE@4
_ZNK11Gfx8BitFont11getNextCharEPKciPjPPKjPiPdS7_S7_S7_@36
_ZNK11Gfx8BitFont12getToUnicodeEv
_ZNK12FoFiTrueType10dumpStringEPKhiPFvPvPKcjES2_@16
_ZNK12FoFiTrueType11cvtEncodingEPPcPFvPvPKcjES2_@12
_ZNK12FoFiTrueType11getCFFBlockEPPcPi@8
_ZNK12FoFiTrueType11getNumCmapsEv
_ZNK12FoFiTrueType12mapCodeToGIDEij@8
_ZNK12FoFiTrueType12mapNameToGIDEPKc@4
_ZNK12FoFiTrueType13getFontMatrixEPd@4
_ZNK12FoFiTrueType14convertToType0EPKcPiiPFvPvS1_jES3_@20
_ZNK12FoFiTrueType14convertToType0EPKcPiibS2_PFvPvS1_jES3_@28
_ZNK12FoFiTrueType14convertToType1EPKcPS1_bPFvPvS1_jES3_@20
_ZNK12FoFiTrueType14cvtCharStringsEPPcPKiPFvPvPKcjES4_@16
_ZNK12FoFiTrueType14getCIDToGIDMapEPi@4
_ZNK12FoFiTrueType15convertToType42EPKcPPcPiPFvPvS1_jES5_@20
_ZNK12FoFiTrueType15getCmapEncodingEi@4
_ZNK12FoFiTrueType15getCmapPlatformEi@4
_ZNK12FoFiTrueType17convertToCIDType0EPKcPiiPFvPvS1_jES3_@20
_ZNK12FoFiTrueType17convertToCIDType2EPKcPKiibPFvPvS1_jES4_@24
_ZNK12FoFiTrueType18getEmbeddingRightsEv
_ZNK12FoFiTrueType20computeTableChecksumEPKhi@8
_ZNK12FoFiTrueType8cvtSfntsEPFvPvPKcjES0_PK9GooStringbPi@20
_ZNK12FoFiTrueType8findCmapEii@8
_ZNK12FoFiTrueType9seekTableEPKc@4
_ZNK12GfxResources10lookupFontEPKc@8
_ZNK12GfxResources12doLookupFontEPKc@8
_ZNK12GlobalParams19getTextEncodingNameEv@4
_ZNK12TextFontInfo10getDescentEv
_ZNK12TextFontInfo7matchesEPK3Ref@4
_ZNK12TextFontInfo7matchesEPK8GfxState@4
_ZNK12TextFontInfo7matchesEPKS_@4
_ZNK12TextFontInfo8getWModeEv
_ZNK12TextFontInfo9getAscentEv
_ZNK12TextWordList9getLengthEv
_ZNK13AnnotFreeText20getDefaultAppearanceEv@4
_ZNK13BBoxOutputDev14getHasGraphicsEv
_ZNK13BBoxOutputDev5getX1Ev
_ZNK13BBoxOutputDev5getX2Ev
_ZNK13BBoxOutputDev5getY1Ev
_ZNK13BBoxOutputDev5getY2Ev
_ZNK13GfxColorSpace16getDefaultRangesEPdS0_i@12
_ZNK13SignatureInfo11getLocationEv
_ZNK13SignatureInfo12getSubjectDNEv@4
_ZNK13SignatureInfo13getSignerNameEv@4
_ZNK13SignatureInfo14getSigningTimeEv
_ZNK13SignatureInfo16getHashAlgorithmEv
_ZNK13SignatureInfo18getCertificateInfoEv
_ZNK13SignatureInfo21getSignatureValStatusEv
_ZNK13SignatureInfo23getCertificateValStatusEv
_ZNK13SignatureInfo9getReasonEv
_ZNK13StructElement10getPageRefER3Ref@4
_ZNK13StructElement10hasPageRefEv
_ZNK13StructElement10isGroupingEv
_ZNK13StructElement11getTypeNameEv
_ZNK13StructElement13findAttributeEN9Attribute4TypeEbNS0_5OwnerE@12
_ZNK13StructElement17appendSubTreeTextEP9GooStringb@8
_ZNK13StructElement20getTextSpansInternalER22MarkedContentOutputDev@4
_ZNK13StructElement7isBlockEv
_ZNK13StructElement8isInlineEv
_ZNK13TextOutputDev13findCharRangeEiiPdS0_S0_S0_@24
_ZNK13TextOutputDev7getTextEdddd@32
_ZNK13TextOutputDev8findTextEPKjibbbbbbbPdS2_S2_S2_@52
_ZNK13TextOutputDev8getFlowsEv
_ZNK14AnnotRichMedia10Activation12getConditionEv
_ZNK14AnnotRichMedia10getContentEv
_ZNK14AnnotRichMedia11getSettingsEv
_ZNK14AnnotRichMedia12Deactivation12getConditionEv
_ZNK14AnnotRichMedia13Configuration11getInstanceEi@4
_ZNK14AnnotRichMedia13Configuration17getInstancesCountEv
_ZNK14AnnotRichMedia13Configuration7getNameEv
_ZNK14AnnotRichMedia13Configuration7getTypeEv
_ZNK14AnnotRichMedia5Asset11getFileSpecEv
_ZNK14AnnotRichMedia5Asset7getNameEv
_ZNK14AnnotRichMedia6Params12getFlashVarsEv
_ZNK14AnnotRichMedia7Content14getAssetsCountEv
_ZNK14AnnotRichMedia7Content16getConfigurationEi@4
_ZNK14AnnotRichMedia7Content22getConfigurationsCountEv
_ZNK14AnnotRichMedia7Content8getAssetEi@4
_ZNK14AnnotRichMedia8Instance7getTypeEv
_ZNK14AnnotRichMedia8Instance9getParamsEv
_ZNK14AnnotRichMedia8Settings13getActivationEv
_ZNK14AnnotRichMedia8Settings15getDeactivationEv
_ZNK14FormWidgetText10getContentEv
_ZNK14FormWidgetText10isPasswordEv
_ZNK14FormWidgetText10isRichTextEv
_ZNK14FormWidgetText11isMultilineEv
_ZNK14FormWidgetText12isFileSelectEv
_ZNK14FormWidgetText12noSpellCheckEv
_ZNK14FormWidgetText6isCombEv
_ZNK14FormWidgetText6parentEv
_ZNK14FormWidgetText8noScrollEv
_ZNK14FormWidgetText9getMaxLenEv
_ZNK14MediaRendition4copyEv
_ZNK15AnnotTextMarkup21shouldCreateApperanceEP3Gfx@4
_ZNK16AnnotBorderArray13writeToObjectEP4XRef@8
_ZNK16AnnotBorderArray4copyEv@4
_ZNK16FormWidgetButton13getButtonTypeEv
_ZNK16FormWidgetButton6parentEv
_ZNK16FormWidgetButton8getOnStrEv
_ZNK16FormWidgetButton8getStateEv
_ZNK16FormWidgetChoice10isSelectedEi@4
_ZNK16FormWidgetChoice11_checkRangeEi@4
_ZNK16FormWidgetChoice12getExportValEi@4
_ZNK16FormWidgetChoice12noSpellCheckEv
_ZNK16FormWidgetChoice13getEditChoiceEv
_ZNK16FormWidgetChoice13getNumChoicesEv
_ZNK16FormWidgetChoice13isMultiSelectEv
_ZNK16FormWidgetChoice17commitOnSelChangeEv
_ZNK16FormWidgetChoice6parentEv
_ZNK16FormWidgetChoice7hasEditEv
_ZNK16FormWidgetChoice7isComboEv
_ZNK16FormWidgetChoice9getChoiceEi@4
_ZNK16FormWidgetChoice9isListBoxEv
_ZNK17DefaultAppearance18toAppearanceStringEv@4
_ZNK18FormFieldSignature16getImageResourceEv
_ZNK18FormFieldSignature20getSignedRangeBoundsEv@4
_ZNK18FormFieldSignature26getCustomAppearanceContentEv
_ZNK18FormFieldSignature30getCustomAppearanceLeftContentEv
_ZNK18FormFieldSignature31getCustomAppearanceLeftFontSizeEv
_ZNK18GfxFunctionShading4copyEv
_ZNK18GfxFunctionShading8getColorEddP8GfxColor@20
_ZNK19FormWidgetSignature12getSignatureEv
_ZNK19FormWidgetSignature13signatureTypeEv
_ZNK19FormWidgetSignature20getSignedRangeBoundsEv@4
_ZNK19GfxPatchMeshShading21getParameterizedColorEdP8GfxColor@12
_ZNK19GfxPatchMeshShading4copyEv
_ZNK19X509CertificateInfo10getVersionEv
_ZNK19X509CertificateInfo11getNickNameEv
_ZNK19X509CertificateInfo11getValidityEv
_ZNK19X509CertificateInfo13getIssuerInfoEv
_ZNK19X509CertificateInfo14getKeyLocationEv
_ZNK19X509CertificateInfo14getSubjectInfoEv
_ZNK19X509CertificateInfo15getIsSelfSignedEv
_ZNK19X509CertificateInfo15getSerialNumberEv
_ZNK19X509CertificateInfo16getPublicKeyInfoEv
_ZNK19X509CertificateInfo17getCertificateDEREv
_ZNK19X509CertificateInfo21getKeyUsageExtensionsEv
_ZNK20OptionalContentGroup6getRefEv
_ZNK20OptionalContentGroup7getNameEv
_ZNK21GfxICCBasedColorSpace10getDeviceNEPK8GfxColorPS0_@8
_ZNK21GfxICCBasedColorSpace13useGetRGBLineEv
_ZNK21GfxICCBasedColorSpace14useGetCMYKLineEv
_ZNK21GfxICCBasedColorSpace15getDefaultColorEP8GfxColor@4
_ZNK21GfxICCBasedColorSpace16getDefaultRangesEPdS0_i ; Check!!! Couldn't determine function argument count. Function doesn't return. 
_ZNK21GfxICCBasedColorSpace17useGetDeviceNLineEv
_ZNK21GfxICCBasedColorSpace4copyEv
_ZNK21GfxICCBasedColorSpace6getRGBEPK8GfxColorP6GfxRGB@8
_ZNK21GfxICCBasedColorSpace7getCMYKEPK8GfxColorP7GfxCMYK@8
_ZNK21GfxICCBasedColorSpace7getGrayEPK8GfxColorPi@8
_ZNK22AnnotAppearanceCharacs4copyEv@4
_ZNK22GfxDeviceRGBColorSpace10getDeviceNEPK8GfxColorPS0_@8
_ZNK22GfxDeviceRGBColorSpace15getDefaultColorEP8GfxColor@4
_ZNK22GfxDeviceRGBColorSpace4copyEv
_ZNK22GfxDeviceRGBColorSpace6getRGBEPK8GfxColorP6GfxRGB@8
_ZNK22GfxDeviceRGBColorSpace7getCMYKEPK8GfxColorP7GfxCMYK@8
_ZNK22GfxDeviceRGBColorSpace7getGrayEPK8GfxColorPi@8
_ZNK22MarkedContentOutputDev12getTextSpansEv
_ZNK22MarkedContentOutputDev14needFontChangeERKNSt3__110shared_ptrIK7GfxFontEE@4
_ZNK23GfxDeviceCMYKColorSpace10getDeviceNEPK8GfxColorPS0_@8
_ZNK23GfxDeviceCMYKColorSpace15getDefaultColorEP8GfxColor@4
_ZNK23GfxDeviceCMYKColorSpace4copyEv
_ZNK23GfxDeviceCMYKColorSpace6getRGBEPK8GfxColorP6GfxRGB@8
_ZNK23GfxDeviceCMYKColorSpace7getCMYKEPK8GfxColorP7GfxCMYK@8
_ZNK23GfxDeviceCMYKColorSpace7getGrayEPK8GfxColorPi@8
_ZNK23GfxDeviceGrayColorSpace10getDeviceNEPK8GfxColorPS0_@8
_ZNK23GfxDeviceGrayColorSpace15getDefaultColorEP8GfxColor@4
_ZNK23GfxDeviceGrayColorSpace4copyEv
_ZNK23GfxDeviceGrayColorSpace6getRGBEPK8GfxColorP6GfxRGB@8
_ZNK23GfxDeviceGrayColorSpace7getCMYKEPK8GfxColorP7GfxCMYK@8
_ZNK23GfxDeviceGrayColorSpace7getGrayEPK8GfxColorPi@8
_ZNK25GfxGouraudTriangleShading21getParameterizedColorEdP8GfxColor@12
_ZNK25GfxGouraudTriangleShading4copyEv
_ZNK4Dict29lookupEnsureEncryptedIfNeededEPKc@8
_ZNK4Dict2isEPKc@4
_ZNK4Dict4copyEP4XRef@4
_ZNK4Dict4findEPKc@4
_ZNK4Dict6getValEiP3Ref@12
_ZNK4Dict6hasKeyEPKc@4
_ZNK4Dict6lookupEPKcP3Refi@16
_ZNK4Dict6lookupEPKci@12
_ZNK4Dict8deepCopyEv
_ZNK4Dict8lookupNFEPKc@4
_ZNK4Dict9lookupIntEPKcS1_Pi@12
_ZNK4Form14findFieldByRefE3Ref@8
_ZNK4Form22getFallbackFontForCharEjRK7GfxFont@12
_ZNK4Form26findFontInDefaultResourcesERKNSt3__112basic_stringIcNS0_11char_traitsIcEENS0_9allocatorIcEEEES8_@12
_ZNK4Form29findFieldByFullyQualifiedNameERKNSt3__112basic_stringIcNS0_11char_traitsIcEENS0_9allocatorIcEEEE@4
_ZNK4OCGs7hasOCGsEv
_ZNK4XRef10okToChangeEb@4
_ZNK4XRef12okToAddNotesEb@4
_ZNK4XRef12okToAssembleEb@4
_ZNK4XRef12okToFillFormEb@4
_ZNK4XRef16okToPrintHighResEb@4
_ZNK4XRef17okToAccessibilityEb@4
_ZNK4XRef4copyEv
_ZNK4XRef8okToCopyEb@4
_ZNK4XRef9okToPrintEb@4
_ZNK5Annot11getRotationEv
_ZNK5Annot13getAppearanceEv@4
_ZNK5Annot6inRectEdd@16
_ZNK5Annot7getRectEPdS0_S0_S0_@16
_ZNK5Array3getEiP3Refi@16
_ZNK5Array3getEii@12
_ZNK5Array4copyEP4XRef@4
_ZNK5Array5getNFEi@4
_ZNK5Array8deepCopyEv
_ZNK5Array9getStringEiP9GooString@8
_ZNK5Movie4copyEv@4
_ZNK5Sound4copyEv
_ZNK6Object10arrayGetNFEi@4
_ZNK6Object10dictGetKeyEi@4
_ZNK6Object10dictGetValEi@8
_ZNK6Object10dictLookupEPKci@12
_ZNK6Object11getTypeNameEv
_ZNK6Object12dictGetValNFEi@4
_ZNK6Object12dictLookupNFEPKc@4
_ZNK6Object13dictGetLengthEv
_ZNK6Object13streamGetDictEv@4
_ZNK6Object14arrayGetLengthEv
_ZNK6Object4copyEv@4
_ZNK6Object5fetchEP4XRefi@12
_ZNK6Object5printEP6_iobuf@4
_ZNK6Object6dictIsEPKc@4
_ZNK6Object6isDictEPKc@4
_ZNK6Object8arrayGetEii@12
_ZNK6Object8deepCopyEv@4
_ZNK6PDFDoc5getIDEP9GooStringS1_@8
_ZNK6Stream11isEncryptedEv
_ZNK7GfxFont23getNameWithoutSubsetTagEv@4
_ZNK7GfxFont8isSubsetEv
_ZNK7GooFile32modificationTimeChangedSinceOpenEv
_ZNK7GooFile4readEPcix@16
_ZNK7GooFile4sizeEv
_ZNK8FoFiBase11checkRegionEii@8
_ZNK8FoFiBase5getS8EiPb@8
_ZNK8FoFiBase5getU8EiPb@8
_ZNK8FoFiBase8getS16BEEiPb@8
_ZNK8FoFiBase8getS32BEEiPb@8
_ZNK8FoFiBase8getU16BEEiPb@8
_ZNK8FoFiBase8getU32BEEiPb@8
_ZNK8FoFiBase8getU32LEEiPb@8
_ZNK8FoFiBase9getUVarBEEiiPb@12
_ZNK8GfxState14transformWidthEd@8
_ZNK8GfxState15getFontTransMatEPdS0_S0_S0_@16
_ZNK8GfxState15getUserClipBBoxEPdS0_S0_S0_@16
_ZNK8GfxState22getTransformedFontSizeEv
_ZNK8NameTree7getNameEi@4
_ZNK8TextPage12dumpFragmentEPKjiPK10UnicodeMapP9GooString@16
_ZNK8TextPage13assignColumnsEP12TextLineFragib@12
_ZNK8TextPage13findCharRangeEiiPdS0_S0_S0_@24
_ZNK8TextPage7getTextEdddd13EndOfLineKind@36
_ZNK8TextWord10primaryCmpEPKS_@4
_ZNK8TextWord11getCharBBoxEiPdS0_S0_S0_@20
_ZNK8TextWord12primaryDeltaEPKS_@4
_ZNK8TextWord7getTextEv
_ZNK9AnnotPath4getXEi@4
_ZNK9AnnotPath4getYEi@4
_ZNK9Attribute11getTypeNameEv
_ZNK9Attribute12getOwnerNameEv
_ZNK9GooString10startsWithEPKc@4
_ZNK9GooString13sanitizedNameEv
_ZNK9GooString8endsWithEPKc@4
_ZTV10AnnotCaret DATA
_ZTV10AnnotMovie DATA
_ZTV10AnnotPopup DATA
_ZTV10AnnotStamp DATA
_ZTV10BaseStream DATA
_ZTV10FileStream DATA
_ZTV10FoFiType1C DATA
_ZTV10FormWidget DATA
_ZTV10GfxCIDFont DATA
_ZTV10GfxShading DATA
_ZTV10JpegWriter DATA
_ZTV10LinkAction DATA
_ZTV10TiffWriter DATA
_ZTV11AnnotBorder DATA
_ZTV11AnnotMarkup DATA
_ZTV11AnnotScreen DATA
_ZTV11AnnotWidget DATA
_ZTV11EmbedStream DATA
_ZTV11Gfx8BitFont DATA
_ZTV11PSOutputDev DATA
_ZTV12AnnotPolygon DATA
_ZTV12FoFiTrueType DATA
_ZTV12NetPBMWriter DATA
_ZTV13AnnotFreeText DATA
_ZTV13AnnotGeometry DATA
_ZTV13BBoxOutputDev DATA
_ZTV13FileOutStream DATA
_ZTV13GfxColorSpace DATA
_ZTV13LinkResetForm DATA
_ZTV13SplashPattern DATA
_ZTV13TextOutputDev DATA
_ZTV14AnnotRichMedia DATA
_ZTV14FormWidgetText DATA
_ZTV15AnnotTextMarkup DATA
_ZTV15FILECacheLoader DATA
_ZTV15SplashOutputDev DATA
_ZTV16AnnotBorderArray DATA
_ZTV16AnnotCalloutLine DATA
_ZTV16CachedFileLoader DATA
_ZTV16CachedFileStream DATA
_ZTV16FormWidgetButton DATA
_ZTV16FormWidgetChoice DATA
_ZTV16SplashFontFileID DATA
_ZTV16SplashSolidColor DATA
_ZTV18FormFieldSignature DATA
_ZTV18GfxFunctionShading DATA
_ZTV19BaseSeekInputStream DATA
_ZTV19FormWidgetSignature DATA
_ZTV19GfxPatchMeshShading DATA
_ZTV20GfxUnivariateShading DATA
_ZTV21AnnotCalloutMultiLine DATA
_ZTV21GfxICCBasedColorSpace DATA
_ZTV22GfxDeviceRGBColorSpace DATA
_ZTV22MarkedContentOutputDev DATA
_ZTV23GfxDeviceCMYKColorSpace DATA
_ZTV23GfxDeviceGrayColorSpace DATA
_ZTV25GfxGouraudTriangleShading DATA
_ZTV5Annot DATA
_ZTV6Stream DATA
_ZTV7GfxFont DATA
_ZTV7LinkURI DATA
_ZTV8AnnotInk DATA
_ZTV8FoFiBase DATA
_ZTV8Function DATA
_ZTV8LinkGoTo DATA
_ZTV9AnnotLine DATA
_ZTV9AnnotText DATA
_ZTV9FormField DATA
_ZTV9ImgWriter DATA
_ZTV9MemStream DATA
_ZTV9OutStream DATA
_ZTV9OutputDev DATA
_ZTV9PNGWriter DATA
_ZZN6Splash10drawAALineEP10SplashPipeiiibhE9bitCount4 DATA
_ZZN6Splash11drawAAPixelEP10SplashPipeiiE9bitCount4 DATA
gatof
globalParams DATA
pdfDocEncoding DATA
